Archive member included to satisfy reference by file (symbol)

build/cooja/mtype63.a(simEnvChange.o)
                              build/cooja/mtype63.o (simDontFallAsleep)
build/cooja/mtype63.a(cooja_mt.o)
                              build/cooja/mtype63.o (cooja_mt_start)
build/cooja/mtype63.a(cooja_mtarch.o)
                              build/cooja/mtype63.a(cooja_mt.o) (cooja_mtarch_start)
build/cooja/mtype63.a(rtimer-arch.o)
                              build/cooja/mtype63.o (rtimer_arch_check)
build/cooja/mtype63.a(beep.o)
                              build/cooja/mtype63.o (beep_interface)
build/cooja/mtype63.a(leds-arch.o)
                              build/cooja/mtype63.o (leds_interface)
build/cooja/mtype63.a(moteid.o)
                              build/cooja/mtype63.o (moteid_interface)
build/cooja/mtype63.a(pir-sensor.o)
                              build/cooja/mtype63.o (pir_interface)
build/cooja/mtype63.a(rs232.o)
                              build/cooja/mtype63.o (rs232_interface)
build/cooja/mtype63.a(vib-sensor.o)
                              build/cooja/mtype63.o (vib_interface)
build/cooja/mtype63.a(clock.o)
                              build/cooja/mtype63.o (clock_interface)
build/cooja/mtype63.a(cooja-log.o)
                              build/cooja/mtype63.o (simlog_interface)
build/cooja/mtype63.a(cfs-cooja.o)
                              build/cooja/mtype63.o (cfs_interface)
build/cooja/mtype63.a(cooja-radio.o)
                              build/cooja/mtype63.o (radio_interface)
build/cooja/mtype63.a(eeprom.o)
                              build/cooja/mtype63.o (eeprom_interface)
build/cooja/mtype63.a(random.o)
                              build/cooja/mtype63.a(moteid.o) (random_init)
build/cooja/mtype63.a(sensors.o)
                              build/cooja/mtype63.a(pir-sensor.o) (sensors_changed)
build/cooja/mtype63.a(leds.o)
                              oxygen_actuator.o (leds_set)
build/cooja/mtype63.a(gpio-hal-arch.o)
                              build/cooja/mtype63.a(leds-arch.o) (gpio_hal_arch_register_pin_callback)
build/cooja/mtype63.a(buttons.o)
                              build/cooja/mtype63.o (button_interface)
build/cooja/mtype63.a(oxygen_generato)
                              oxygen_actuator.o (alert_level)
build/cooja/mtype63.a(coap-observe-cl)
                              oxygen_actuator.o (coap_obs_request_registration)
build/cooja/mtype63.a(coap-blocking-a)
                              oxygen_actuator.o (coap_blocking_request)
build/cooja/mtype63.a(coap-engine.o)
                              oxygen_actuator.o (coap_activate_resource)
build/cooja/mtype63.a(coap-res-well-k)
                              build/cooja/mtype63.a(coap-engine.o) (res_well_known_core)
build/cooja/mtype63.a(coap-observe.o)
                              build/cooja/mtype63.a(coap-engine.o) (coap_remove_observer_by_mid)
build/cooja/mtype63.a(coap-uip.o)
                              oxygen_actuator.o (coap_endpoint_log)
build/cooja/mtype63.a(coap-timer.o)
                              build/cooja/mtype63.a(coap-engine.o) (coap_timer_set)
build/cooja/mtype63.a(coap-transactio)
                              build/cooja/mtype63.a(coap-observe-cl) (coap_send_transaction)
build/cooja/mtype63.a(coap.o)
                              build/cooja/mtype63.a(coap-engine.o) (coap_status_code)
build/cooja/mtype63.a(contiki-main.o)
                              build/cooja/mtype63.o (main)
build/cooja/mtype63.a(autostart.o)
                              build/cooja/mtype63.a(contiki-main.o) (autostart_start)
build/cooja/mtype63.a(ctimer.o)
                              build/cooja/mtype63.a(contiki-main.o) (ctimer_init)
build/cooja/mtype63.a(log.o)  build/cooja/mtype63.a(contiki-main.o) (curr_log_level_main)
build/cooja/mtype63.a(energest.o)
                              build/cooja/mtype63.a(contiki-main.o) (energest_init)
build/cooja/mtype63.a(etimer.o)
                              build/cooja/mtype63.a(contiki-main.o) (etimer_process)
build/cooja/mtype63.a(node-id.o)
                              build/cooja/mtype63.a(contiki-main.o) (node_id)
build/cooja/mtype63.a(rtimer.o)
                              build/cooja/mtype63.a(contiki-main.o) (rtimer_init)
build/cooja/mtype63.a(process.o)
                              build/cooja/mtype63.a(coap-blocking-a) (process_current)
build/cooja/mtype63.a(timer.o)
                              build/cooja/mtype63.a(etimer.o) (timer_set)
build/cooja/mtype63.a(list.o)
                              build/cooja/mtype63.a(coap-engine.o) (list_init)
build/cooja/mtype63.a(memb.o)
                              build/cooja/mtype63.a(coap-observe-cl) (memb_alloc)
build/cooja/mtype63.a(button-hal.o)
                              oxygen_actuator.o (button_hal_press_event)
build/cooja/mtype63.a(serial-line.o)
                              build/cooja/mtype63.a(rs232.o) (serial_line_input_byte)
build/cooja/mtype63.a(gpio-hal.o)
                              build/cooja/mtype63.a(button-hal.o) (gpio_hal_register_handler)
build/cooja/mtype63.a(queuebuf.o)
                              build/cooja/mtype63.a(contiki-main.o) (queuebuf_init)
build/cooja/mtype63.a(packetbuf.o)
                              build/cooja/mtype63.a(cooja-radio.o) (packetbuf_clear)
build/cooja/mtype63.a(netstack.o)
                              build/cooja/mtype63.a(contiki-main.o) (netstack_init)
build/cooja/mtype63.a(linkaddr.o)
                              build/cooja/mtype63.a(contiki-main.o) (linkaddr_node_addr)
build/cooja/mtype63.a(csma.o)
                              build/cooja/mtype63.a(cooja-radio.o) (csma_driver)
build/cooja/mtype63.a(csma-output.o)
                              build/cooja/mtype63.a(csma.o) (csma_output_packet)
build/cooja/mtype63.a(uip-ds6.o)
                              build/cooja/mtype63.a(contiki-main.o) (uip_ds6_get_link_local)
build/cooja/mtype63.a(uip-udp-packet.)
                              build/cooja/mtype63.a(coap-uip.o) (uip_udp_packet_sendto)
build/cooja/mtype63.a(uip-ds6-route.o)
                              build/cooja/mtype63.a(uip-ds6.o) (uip_ds6_route_init)
build/cooja/mtype63.a(tcpip.o)
                              build/cooja/mtype63.a(coap-uip.o) (tcpip_event)
build/cooja/mtype63.a(uip6.o)
                              build/cooja/mtype63.a(contiki-main.o) (uip_lladdr)
build/cooja/mtype63.a(uip-ds6-nbr.o)
                              build/cooja/mtype63.a(uip-ds6.o) (uip_ds6_neighbors_init)
build/cooja/mtype63.a(uip-nd6.o)
                              build/cooja/mtype63.a(uip6.o) (uip_nd6_init)
build/cooja/mtype63.a(sicslowpan.o)
                              build/cooja/mtype63.a(contiki-main.o) (sicslowpan_driver)
build/cooja/mtype63.a(uiplib.o)
                              build/cooja/mtype63.a(coap-uip.o) (uiplib_ip6addrconv)
build/cooja/mtype63.a(rpl.o)  build/cooja/mtype63.a(coap-uip.o) (rpl_lite_driver)
build/cooja/mtype63.a(rpl-icmp6.o)
                              build/cooja/mtype63.a(rpl.o) (rpl_icmp6_init)
build/cooja/mtype63.a(rpl-dag-root.o)
                              build/cooja/mtype63.a(rpl.o) (rpl_dag_root_is_root)
build/cooja/mtype63.a(watchdog.o)
                              build/cooja/mtype63.a(contiki-main.o) (watchdog_init)
build/cooja/mtype63.a(int-master.o)
                              build/cooja/mtype63.a(button-hal.o) (int_master_read_and_disable)
build/cooja/mtype63.a(coap-timer-defa)
                              build/cooja/mtype63.a(coap-timer.o) (coap_timer_default_driver)
build/cooja/mtype63.a(stimer.o)
                              build/cooja/mtype63.a(uip-ds6.o) (stimer_set)
build/cooja/mtype63.a(ringbuf.o)
                              build/cooja/mtype63.a(serial-line.o) (ringbuf_init)
build/cooja/mtype63.a(assert.o)
                              build/cooja/mtype63.a(csma-output.o) (_xassert)
build/cooja/mtype63.a(nbr-table.o)
                              build/cooja/mtype63.a(uip-ds6-nbr.o) (nbr_table_register)
build/cooja/mtype63.a(link-stats.o)
                              build/cooja/mtype63.a(sicslowpan.o) (link_stats_packet_sent)
build/cooja/mtype63.a(mac-sequence.o)
                              build/cooja/mtype63.a(csma.o) (mac_sequence_is_duplicate)
build/cooja/mtype63.a(mac.o)  build/cooja/mtype63.a(csma-output.o) (mac_call_sent_callback)
build/cooja/mtype63.a(framer-802154.o)
                              build/cooja/mtype63.a(csma.o) (framer_802154)
build/cooja/mtype63.a(frame802154.o)
                              build/cooja/mtype63.a(framer-802154.o) (frame802154_get_pan_id)
build/cooja/mtype63.a(csma-security.o)
                              build/cooja/mtype63.a(csma-output.o) (csma_security_create_frame)
build/cooja/mtype63.a(uipbuf.o)
                              build/cooja/mtype63.a(tcpip.o) (uipbuf_clear)
build/cooja/mtype63.a(uip-icmp6.o)
                              build/cooja/mtype63.a(uip6.o) (uip_icmp6_input)
build/cooja/mtype63.a(uip-sr.o)
                              build/cooja/mtype63.a(rpl-dag-root.o) (uip_sr_num_nodes)
build/cooja/mtype63.a(uip-packetqueue)
                              build/cooja/mtype63.a(uip-ds6-nbr.o) (uip_packetqueue_new)
build/cooja/mtype63.a(rpl-nbr-policy.)
                              build/cooja/mtype63.a(nbr-table.o) (rpl_nbr_policy_find_removable)
build/cooja/mtype63.a(rpl-neighbor.o)
                              build/cooja/mtype63.a(rpl-icmp6.o) (rpl_neighbor_get_ipaddr)
build/cooja/mtype63.a(rpl-dag.o)
                              build/cooja/mtype63.a(rpl.o) (curr_instance)
build/cooja/mtype63.a(rpl-timers.o)
                              build/cooja/mtype63.a(rpl-dag.o) (rpl_timers_schedule_periodic_dis)
build/cooja/mtype63.a(rpl-ext-header.)
                              build/cooja/mtype63.a(rpl.o) (rpl_ext_header_srh_get_next_hop)
build/cooja/mtype63.a(rpl-mrhof.o)
                              build/cooja/mtype63.a(rpl-dag.o) (rpl_mrhof)
/usr/lib/gcc/i686-linux-gnu/5/libgcc.a(_udivdi3.o)
                              build/cooja/mtype63.a(coap-timer-defa) (__udivdi3)

Allocating common symbols
Common symbol       size              file

simButtonIsDown     0x1               build/cooja/mtype63.a(buttons.o)
simOutDataBuffer    0x7d              build/cooja/mtype63.a(cooja-radio.o)
uip_ds6_prefix_list
                    0x60              build/cooja/mtype63.a(uip-ds6.o)
linkaddr_node_addr  0x8               build/cooja/mtype63.a(linkaddr.o)
simSerialReceivingFlag
                    0x1               build/cooja/mtype63.a(rs232.o)
simEEPROMData       0x400             build/cooja/mtype63.a(eeprom.o)
periodic_timer      0x20              build/cooja/mtype63.a(link-stats.o)
simLoggedLength     0x4               build/cooja/mtype63.a(cooja-log.o)
simSerialReceivingLength
                    0x4               build/cooja/mtype63.a(rs232.o)
simEtimerPending    0x4               build/cooja/mtype63.a(simEnvChange.o)
uip_slen            0x2               build/cooja/mtype63.a(uip6.o)
uip_ds6_timer_periodic
                    0x10              build/cooja/mtype63.a(uip-ds6.o)
eb_per_time_source  0x18              build/cooja/mtype63.a(contiki-main.o)
unicast_per_neighbor_rpl_storing
                    0x18              build/cooja/mtype63.a(contiki-main.o)
simVibChanged       0x1               build/cooja/mtype63.a(vib-sensor.o)
simRtimerPending    0x4               build/cooja/mtype63.a(rtimer-arch.o)
button_hal_periodic_event
                    0x1               build/cooja/mtype63.a(button-hal.o)
uip_ds6_netif_addr_list_offset
                    0x1               build/cooja/mtype63.a(uip-ds6.o)
uip_lladdr          0x8               build/cooja/mtype63.a(uip6.o)
button_hal_press_event
                    0x1               build/cooja/mtype63.a(button-hal.o)
simProcessRunValue  0x4               build/cooja/mtype63.a(simEnvChange.o)
serial_line_event_message
                    0x1               build/cooja/mtype63.a(serial-line.o)
uip_appdata         0x4               build/cooja/mtype63.a(uip6.o)
referenceVar        0x4               build/cooja/mtype63.o
simCurrentTime      0x4               build/cooja/mtype63.a(clock.o)
simVibIsActive      0x1               build/cooja/mtype63.a(vib-sensor.o)
unicast_per_neighbor_rpl_ns
                    0x18              build/cooja/mtype63.a(contiki-main.o)
uip_ds6_if          0xf8              build/cooja/mtype63.a(uip-ds6.o)
uip_flags           0x1               build/cooja/mtype63.a(uip6.o)
uip_ds6_timer_ra    0x8               build/cooja/mtype63.a(uip-ds6.o)
default_common      0x18              build/cooja/mtype63.a(contiki-main.o)
simSerialReceivingData
                    0x800             build/cooja/mtype63.a(rs232.o)
simLoggedFlag       0x1               build/cooja/mtype63.a(cooja-log.o)
packetbuf_attrs     0x1a              build/cooja/mtype63.a(packetbuf.o)
uip_ds6_addr_size   0x1               build/cooja/mtype63.a(uip-ds6.o)
uip_aligned_buf     0x500             build/cooja/mtype63.a(uip6.o)
simRtimerCurrentTicks
                    0x8               build/cooja/mtype63.a(rtimer-arch.o)
simRandomSeed       0x4               build/cooja/mtype63.a(moteid.o)
rpl_multicast_addr  0x10              build/cooja/mtype63.a(rpl.o)
simLoggedData       0x2000            build/cooja/mtype63.a(cooja-log.o)
simEtimerNextExpirationTime
                    0x4               build/cooja/mtype63.a(simEnvChange.o)
uip_len             0x2               build/cooja/mtype63.a(uip6.o)
simButtonChanged    0x1               build/cooja/mtype63.a(buttons.o)
simRtimerNextExpirationTime
                    0x8               build/cooja/mtype63.a(rtimer-arch.o)
simPirIsActive      0x1               build/cooja/mtype63.a(pir-sensor.o)
simInDataBuffer     0x7d              build/cooja/mtype63.a(cooja-radio.o)
simPirChanged       0x1               build/cooja/mtype63.a(pir-sensor.o)
simBeeped           0x1               build/cooja/mtype63.a(beep.o)
tcpip_event         0x1               build/cooja/mtype63.a(tcpip.o)
uip_sappdata        0x4               build/cooja/mtype63.a(uip6.o)
sensors_event       0x1               build/cooja/mtype63.a(sensors.o)
uip_udp_conns       0x100             build/cooja/mtype63.a(uip6.o)
button_hal_release_event
                    0x1               build/cooja/mtype63.a(button-hal.o)
packetbuf_addrs     0x10              build/cooja/mtype63.a(packetbuf.o)
uip_udp_conn        0x4               build/cooja/mtype63.a(uip6.o)
simMoteIDChanged    0x1               build/cooja/mtype63.a(moteid.o)
sensors_flags       0x4               build/cooja/mtype63.o
curr_instance       0x164             build/cooja/mtype63.a(rpl-dag.o)
simMoteID           0x4               build/cooja/mtype63.a(moteid.o)
uip_conn            0x4               build/cooja/mtype63.a(uip6.o)

Discarded input sections

 .note.GNU-stack
                0x0000000000000000        0x0 /usr/lib/gcc/i686-linux-gnu/5/../../../i386-linux-gnu/crti.o
 .group         0x0000000000000000        0x8 /usr/lib/gcc/i686-linux-gnu/5/crtbeginS.o
 .group         0x0000000000000000        0x8 /usr/lib/gcc/i686-linux-gnu/5/crtbeginS.o
 .text.__x86.get_pc_thunk.bx
                0x0000000000000000        0x4 /usr/lib/gcc/i686-linux-gnu/5/crtbeginS.o
 .note.GNU-stack
                0x0000000000000000        0x0 /usr/lib/gcc/i686-linux-gnu/5/crtbeginS.o
 .note.GNU-stack
                0x0000000000000000        0x0 oxygen_actuator.o
 .note.GNU-stack
                0x0000000000000000        0x0 build/cooja/mtype63.o
 .note.GNU-stack
                0x0000000000000000        0x0 build/cooja/mtype63.a(simEnvChange.o)
 .note.GNU-stack
                0x0000000000000000        0x0 build/cooja/mtype63.a(cooja_mt.o)
 .note.GNU-stack
                0x0000000000000000        0x0 build/cooja/mtype63.a(cooja_mtarch.o)
 .note.GNU-stack
                0x0000000000000000        0x0 build/cooja/mtype63.a(rtimer-arch.o)
 .note.GNU-stack
                0x0000000000000000        0x0 build/cooja/mtype63.a(beep.o)
 .note.GNU-stack
                0x0000000000000000        0x0 build/cooja/mtype63.a(leds-arch.o)
 .note.GNU-stack
                0x0000000000000000        0x0 build/cooja/mtype63.a(moteid.o)
 .note.GNU-stack
                0x0000000000000000        0x0 build/cooja/mtype63.a(pir-sensor.o)
 .note.GNU-stack
                0x0000000000000000        0x0 build/cooja/mtype63.a(rs232.o)
 .note.GNU-stack
                0x0000000000000000        0x0 build/cooja/mtype63.a(vib-sensor.o)
 .note.GNU-stack
                0x0000000000000000        0x0 build/cooja/mtype63.a(clock.o)
 .note.GNU-stack
                0x0000000000000000        0x0 build/cooja/mtype63.a(cooja-log.o)
 .note.GNU-stack
                0x0000000000000000        0x0 build/cooja/mtype63.a(cfs-cooja.o)
 .note.GNU-stack
                0x0000000000000000        0x0 build/cooja/mtype63.a(cooja-radio.o)
 .note.GNU-stack
                0x0000000000000000        0x0 build/cooja/mtype63.a(eeprom.o)
 .note.GNU-stack
                0x0000000000000000        0x0 build/cooja/mtype63.a(random.o)
 .note.GNU-stack
                0x0000000000000000        0x0 build/cooja/mtype63.a(sensors.o)
 .note.GNU-stack
                0x0000000000000000        0x0 build/cooja/mtype63.a(leds.o)
 .note.GNU-stack
                0x0000000000000000        0x0 build/cooja/mtype63.a(gpio-hal-arch.o)
 .note.GNU-stack
                0x0000000000000000        0x0 build/cooja/mtype63.a(buttons.o)
 .note.GNU-stack
                0x0000000000000000        0x0 build/cooja/mtype63.a(oxygen_generato)
 .note.GNU-stack
                0x0000000000000000        0x0 build/cooja/mtype63.a(coap-observe-cl)
 .note.GNU-stack
                0x0000000000000000        0x0 build/cooja/mtype63.a(coap-blocking-a)
 .note.GNU-stack
                0x0000000000000000        0x0 build/cooja/mtype63.a(coap-engine.o)
 .note.GNU-stack
                0x0000000000000000        0x0 build/cooja/mtype63.a(coap-res-well-k)
 .note.GNU-stack
                0x0000000000000000        0x0 build/cooja/mtype63.a(coap-observe.o)
 .note.GNU-stack
                0x0000000000000000        0x0 build/cooja/mtype63.a(coap-uip.o)
 .note.GNU-stack
                0x0000000000000000        0x0 build/cooja/mtype63.a(coap-timer.o)
 .note.GNU-stack
                0x0000000000000000        0x0 build/cooja/mtype63.a(coap-transactio)
 .note.GNU-stack
                0x0000000000000000        0x0 build/cooja/mtype63.a(coap.o)
 .note.GNU-stack
                0x0000000000000000        0x0 build/cooja/mtype63.a(contiki-main.o)
 .note.GNU-stack
                0x0000000000000000        0x0 build/cooja/mtype63.a(autostart.o)
 .note.GNU-stack
                0x0000000000000000        0x0 build/cooja/mtype63.a(ctimer.o)
 .note.GNU-stack
                0x0000000000000000        0x0 build/cooja/mtype63.a(log.o)
 .note.GNU-stack
                0x0000000000000000        0x0 build/cooja/mtype63.a(energest.o)
 .note.GNU-stack
                0x0000000000000000        0x0 build/cooja/mtype63.a(etimer.o)
 .note.GNU-stack
                0x0000000000000000        0x0 build/cooja/mtype63.a(node-id.o)
 .note.GNU-stack
                0x0000000000000000        0x0 build/cooja/mtype63.a(rtimer.o)
 .note.GNU-stack
                0x0000000000000000        0x0 build/cooja/mtype63.a(process.o)
 .note.GNU-stack
                0x0000000000000000        0x0 build/cooja/mtype63.a(timer.o)
 .note.GNU-stack
                0x0000000000000000        0x0 build/cooja/mtype63.a(list.o)
 .note.GNU-stack
                0x0000000000000000        0x0 build/cooja/mtype63.a(memb.o)
 .note.GNU-stack
                0x0000000000000000        0x0 build/cooja/mtype63.a(button-hal.o)
 .note.GNU-stack
                0x0000000000000000        0x0 build/cooja/mtype63.a(serial-line.o)
 .note.GNU-stack
                0x0000000000000000        0x0 build/cooja/mtype63.a(gpio-hal.o)
 .note.GNU-stack
                0x0000000000000000        0x0 build/cooja/mtype63.a(queuebuf.o)
 .note.GNU-stack
                0x0000000000000000        0x0 build/cooja/mtype63.a(packetbuf.o)
 .note.GNU-stack
                0x0000000000000000        0x0 build/cooja/mtype63.a(netstack.o)
 .note.GNU-stack
                0x0000000000000000        0x0 build/cooja/mtype63.a(linkaddr.o)
 .note.GNU-stack
                0x0000000000000000        0x0 build/cooja/mtype63.a(csma.o)
 .note.GNU-stack
                0x0000000000000000        0x0 build/cooja/mtype63.a(csma-output.o)
 .note.GNU-stack
                0x0000000000000000        0x0 build/cooja/mtype63.a(uip-ds6.o)
 .note.GNU-stack
                0x0000000000000000        0x0 build/cooja/mtype63.a(uip-udp-packet.)
 .note.GNU-stack
                0x0000000000000000        0x0 build/cooja/mtype63.a(uip-ds6-route.o)
 .note.GNU-stack
                0x0000000000000000        0x0 build/cooja/mtype63.a(tcpip.o)
 .note.GNU-stack
                0x0000000000000000        0x0 build/cooja/mtype63.a(uip6.o)
 .note.GNU-stack
                0x0000000000000000        0x0 build/cooja/mtype63.a(uip-ds6-nbr.o)
 .note.GNU-stack
                0x0000000000000000        0x0 build/cooja/mtype63.a(uip-nd6.o)
 .note.GNU-stack
                0x0000000000000000        0x0 build/cooja/mtype63.a(sicslowpan.o)
 .note.GNU-stack
                0x0000000000000000        0x0 build/cooja/mtype63.a(uiplib.o)
 .note.GNU-stack
                0x0000000000000000        0x0 build/cooja/mtype63.a(rpl.o)
 .note.GNU-stack
                0x0000000000000000        0x0 build/cooja/mtype63.a(rpl-icmp6.o)
 .note.GNU-stack
                0x0000000000000000        0x0 build/cooja/mtype63.a(rpl-dag-root.o)
 .note.GNU-stack
                0x0000000000000000        0x0 build/cooja/mtype63.a(watchdog.o)
 .note.GNU-stack
                0x0000000000000000        0x0 build/cooja/mtype63.a(int-master.o)
 .note.GNU-stack
                0x0000000000000000        0x0 build/cooja/mtype63.a(coap-timer-defa)
 .note.GNU-stack
                0x0000000000000000        0x0 build/cooja/mtype63.a(stimer.o)
 .note.GNU-stack
                0x0000000000000000        0x0 build/cooja/mtype63.a(ringbuf.o)
 .note.GNU-stack
                0x0000000000000000        0x0 build/cooja/mtype63.a(assert.o)
 .note.GNU-stack
                0x0000000000000000        0x0 build/cooja/mtype63.a(nbr-table.o)
 .note.GNU-stack
                0x0000000000000000        0x0 build/cooja/mtype63.a(link-stats.o)
 .note.GNU-stack
                0x0000000000000000        0x0 build/cooja/mtype63.a(mac-sequence.o)
 .note.GNU-stack
                0x0000000000000000        0x0 build/cooja/mtype63.a(mac.o)
 .note.GNU-stack
                0x0000000000000000        0x0 build/cooja/mtype63.a(framer-802154.o)
 .note.GNU-stack
                0x0000000000000000        0x0 build/cooja/mtype63.a(frame802154.o)
 .note.GNU-stack
                0x0000000000000000        0x0 build/cooja/mtype63.a(csma-security.o)
 .note.GNU-stack
                0x0000000000000000        0x0 build/cooja/mtype63.a(uipbuf.o)
 .note.GNU-stack
                0x0000000000000000        0x0 build/cooja/mtype63.a(uip-icmp6.o)
 .note.GNU-stack
                0x0000000000000000        0x0 build/cooja/mtype63.a(uip-sr.o)
 .note.GNU-stack
                0x0000000000000000        0x0 build/cooja/mtype63.a(uip-packetqueue)
 .note.GNU-stack
                0x0000000000000000        0x0 build/cooja/mtype63.a(rpl-nbr-policy.)
 .note.GNU-stack
                0x0000000000000000        0x0 build/cooja/mtype63.a(rpl-neighbor.o)
 .note.GNU-stack
                0x0000000000000000        0x0 build/cooja/mtype63.a(rpl-dag.o)
 .note.GNU-stack
                0x0000000000000000        0x0 build/cooja/mtype63.a(rpl-timers.o)
 .note.GNU-stack
                0x0000000000000000        0x0 build/cooja/mtype63.a(rpl-ext-header.)
 .note.GNU-stack
                0x0000000000000000        0x0 build/cooja/mtype63.a(rpl-mrhof.o)
 .note.GNU-stack
                0x0000000000000000        0x0 /usr/lib/gcc/i686-linux-gnu/5/libgcc.a(_udivdi3.o)
 .note.GNU-stack
                0x0000000000000000        0x0 /usr/lib/gcc/i686-linux-gnu/5/crtendS.o
 .note.GNU-stack
                0x0000000000000000        0x0 /usr/lib/gcc/i686-linux-gnu/5/../../../i386-linux-gnu/crtn.o

Memory Configuration

Name             Origin             Length             Attributes
*default*        0x0000000000000000 0xffffffffffffffff

Linker script and memory map

LOAD /usr/lib/gcc/i686-linux-gnu/5/../../../i386-linux-gnu/crti.o
LOAD /usr/lib/gcc/i686-linux-gnu/5/crtbeginS.o
LOAD oxygen_actuator.o
LOAD build/cooja/mtype63.o
LOAD build/cooja/mtype63.a
LOAD /usr/lib/gcc/i686-linux-gnu/5/libgcc.a
LOAD /usr/lib/gcc/i686-linux-gnu/5/libgcc_s.so
LOAD /usr/lib/gcc/i686-linux-gnu/5/../../../i386-linux-gnu/libc.so
START GROUP
LOAD /lib/i386-linux-gnu/libc.so.6
LOAD /usr/lib/i386-linux-gnu/libc_nonshared.a
LOAD /lib/i386-linux-gnu/ld-linux.so.2
END GROUP
LOAD /usr/lib/gcc/i686-linux-gnu/5/libgcc.a
LOAD /usr/lib/gcc/i686-linux-gnu/5/libgcc_s.so
LOAD /usr/lib/gcc/i686-linux-gnu/5/crtendS.o
LOAD /usr/lib/gcc/i686-linux-gnu/5/../../../i386-linux-gnu/crtn.o
                0x0000000000000114                . = (0x0 + SIZEOF_HEADERS)

.note.gnu.build-id
                0x0000000000000114       0x24
 *(.note.gnu.build-id)
 .note.gnu.build-id
                0x0000000000000114       0x24 /usr/lib/gcc/i686-linux-gnu/5/../../../i386-linux-gnu/crti.o

.hash
 *(.hash)

.gnu.hash       0x0000000000000138     0x15c8
 *(.gnu.hash)
 .gnu.hash      0x0000000000000138     0x15c8 /usr/lib/gcc/i686-linux-gnu/5/../../../i386-linux-gnu/crti.o

.dynsym         0x0000000000001700     0x2ff0
 *(.dynsym)
 .dynsym        0x0000000000001700     0x2ff0 /usr/lib/gcc/i686-linux-gnu/5/../../../i386-linux-gnu/crti.o

.dynstr         0x00000000000046f0     0x37cf
 *(.dynstr)
 .dynstr        0x00000000000046f0     0x37cf /usr/lib/gcc/i686-linux-gnu/5/../../../i386-linux-gnu/crti.o

.gnu.version    0x0000000000007ec0      0x5fe
 *(.gnu.version)
 .gnu.version   0x0000000000007ec0      0x5fe /usr/lib/gcc/i686-linux-gnu/5/../../../i386-linux-gnu/crti.o

.gnu.version_d  0x00000000000084c0        0x0
 *(.gnu.version_d)
 .gnu.version_d
                0x00000000000084c0        0x0 /usr/lib/gcc/i686-linux-gnu/5/../../../i386-linux-gnu/crti.o

.gnu.version_r  0x00000000000084c0       0x40
 *(.gnu.version_r)
 .gnu.version_r
                0x00000000000084c0       0x40 /usr/lib/gcc/i686-linux-gnu/5/../../../i386-linux-gnu/crti.o

.rel.dyn        0x0000000000008500     0x96d8
 *(.rel.init)
 .rel.init      0x0000000000008500        0x0 /usr/lib/gcc/i686-linux-gnu/5/../../../i386-linux-gnu/crti.o
 *(.rel.text .rel.text.* .rel.gnu.linkonce.t.*)
 .rel.text      0x0000000000008500     0x8cd8 /usr/lib/gcc/i686-linux-gnu/5/../../../i386-linux-gnu/crti.o
 *(.rel.fini)
 .rel.fini      0x00000000000111d8        0x0 /usr/lib/gcc/i686-linux-gnu/5/../../../i386-linux-gnu/crti.o
 *(.rel.rodata .rel.rodata.* .rel.gnu.linkonce.r.*)
 .rel.rodata    0x00000000000111d8      0x5b0 /usr/lib/gcc/i686-linux-gnu/5/../../../i386-linux-gnu/crti.o
 *(.rel.data.rel.ro .rel.data.rel.ro.* .rel.gnu.linkonce.d.rel.ro.*)
 *(.rel.data .rel.data.* .rel.gnu.linkonce.d.*)
 .rel.data.rel.local
                0x0000000000011788        0x8 /usr/lib/gcc/i686-linux-gnu/5/../../../i386-linux-gnu/crti.o
 .rel.data      0x0000000000011790      0x410 /usr/lib/gcc/i686-linux-gnu/5/../../../i386-linux-gnu/crti.o
 *(.rel.tdata .rel.tdata.* .rel.gnu.linkonce.td.*)
 *(.rel.tbss .rel.tbss.* .rel.gnu.linkonce.tb.*)
 *(.rel.ctors)
 *(.rel.dtors)
 *(.rel.got)
 .rel.got       0x0000000000011ba0       0x28 /usr/lib/gcc/i686-linux-gnu/5/../../../i386-linux-gnu/crti.o
 *(.rel.bss .rel.bss.* .rel.gnu.linkonce.b.*)
 *(.rel.ifunc)
 .rel.ifunc     0x0000000000011bc8        0x0 /usr/lib/gcc/i686-linux-gnu/5/../../../i386-linux-gnu/crti.o
 .rel.fini_array
                0x0000000000011bc8        0x8 /usr/lib/gcc/i686-linux-gnu/5/../../../i386-linux-gnu/crti.o
 .rel.init_array
                0x0000000000011bd0        0x8 /usr/lib/gcc/i686-linux-gnu/5/../../../i386-linux-gnu/crti.o

.rel.plt        0x0000000000011bd8        0x0
 *(.rel.plt)
 .rel.plt       0x0000000000011bd8        0x0 /usr/lib/gcc/i686-linux-gnu/5/../../../i386-linux-gnu/crti.o
 *(.rel.iplt)

.init           0x0000000000011bd8       0x23
 *(SORT(.init))
 .init          0x0000000000011bd8       0x1e /usr/lib/gcc/i686-linux-gnu/5/../../../i386-linux-gnu/crti.o
                0x0000000000011bd8                _init
 .init          0x0000000000011bf6        0x5 /usr/lib/gcc/i686-linux-gnu/5/../../../i386-linux-gnu/crtn.o

.plt            0x0000000000011c00       0x10
 *(.plt)
 .plt           0x0000000000011c00       0x10 /usr/lib/gcc/i686-linux-gnu/5/../../../i386-linux-gnu/crti.o
 *(.iplt)

.plt.got        0x0000000000011c10       0x10
 *(.plt.got)
 .plt.got       0x0000000000011c10       0x10 /usr/lib/gcc/i686-linux-gnu/5/../../../i386-linux-gnu/crti.o

.text           0x0000000000011c20    0x19312
 *(.text.unlikely .text.*_unlikely .text.unlikely.*)
 .text.unlikely
                0x0000000000011c20        0x0 /usr/lib/gcc/i686-linux-gnu/5/crtbeginS.o
 .text.unlikely
                0x0000000000011c20        0x0 /usr/lib/gcc/i686-linux-gnu/5/libgcc.a(_udivdi3.o)
 *(.text.exit .text.exit.*)
 *(.text.startup .text.startup.*)
 *(.text.hot .text.hot.*)
 *(.text .stub .text.* .gnu.linkonce.t.*)
 .text          0x0000000000011c20        0x0 /usr/lib/gcc/i686-linux-gnu/5/../../../i386-linux-gnu/crti.o
 .gnu.linkonce.t.__x86.get_pc_thunk.bx
                0x0000000000011c20        0x4 /usr/lib/gcc/i686-linux-gnu/5/../../../i386-linux-gnu/crti.o
                0x0000000000011c20                __x86.get_pc_thunk.bx
 *fill*         0x0000000000011c24        0xc 
 .text          0x0000000000011c30      0x11c /usr/lib/gcc/i686-linux-gnu/5/crtbeginS.o
 .text.__x86.get_pc_thunk.dx
                0x0000000000011d4c        0x4 /usr/lib/gcc/i686-linux-gnu/5/crtbeginS.o
                0x0000000000011d4c                __x86.get_pc_thunk.dx
 .text          0x0000000000011d50      0x6f2 oxygen_actuator.o
                0x0000000000011d50                update_leds
                0x0000000000011ddd                wait_for_ack
                0x0000000000011e32                wait_for_discovery
 .text          0x0000000000012442      0x283 build/cooja/mtype63.o
                0x00000000000124d4                platform_init_stage_one
                0x00000000000124e7                platform_init_stage_two
                0x00000000000124fa                platform_init_stage_three
                0x000000000001250d                platform_main_loop
                0x0000000000012580                Java_org_contikios_cooja_corecomm_Lib5_init
                0x00000000000125b7                Java_org_contikios_cooja_corecomm_Lib5_getMemory
                0x00000000000125ea                Java_org_contikios_cooja_corecomm_Lib5_setMemory
                0x000000000001264a                Java_org_contikios_cooja_corecomm_Lib5_tick
                0x00000000000126b2                Java_org_contikios_cooja_corecomm_Lib5_setReferenceAddress
 .text          0x00000000000126c5       0x65 build/cooja/mtype63.a(simEnvChange.o)
                0x00000000000126c5                doActionsBeforeTick
                0x00000000000126f7                doActionsAfterTick
 .text          0x000000000001272a       0x83 build/cooja/mtype63.a(cooja_mt.o)
                0x000000000001272a                cooja_mt_start
                0x0000000000012754                cooja_mt_exec
                0x000000000001278a                cooja_mt_yield
 .text          0x00000000000127ad       0xbe build/cooja/mtype63.a(cooja_mtarch.o)
                0x00000000000127ad                cooja_mtarch_start
                0x0000000000012820                cooja_sw
                0x0000000000012843                cooja_mtarch_exec
                0x0000000000012860                cooja_mtarch_yield
 .text          0x000000000001286b       0xc5 build/cooja/mtype63.a(rtimer-arch.o)
                0x000000000001286b                rtimer_arch_init
                0x000000000001288f                rtimer_arch_schedule
                0x00000000000128bf                rtimer_arch_next
                0x00000000000128cf                rtimer_arch_pending
                0x00000000000128d9                rtimer_arch_check
                0x0000000000012920                rtimer_arch_now
 .text          0x0000000000012930       0x81 build/cooja/mtype63.a(beep.o)
                0x0000000000012930                beep_alarm
                0x000000000001293d                beep_beep
                0x000000000001294a                beep
                0x0000000000012957                beep_down
                0x0000000000012964                beep_on
                0x0000000000012971                beep_off
                0x000000000001297e                beep_spinup
                0x000000000001298b                beep_quick
                0x0000000000012998                beep_long
 .text          0x00000000000129b1       0x65 build/cooja/mtype63.a(leds-arch.o)
                0x00000000000129c4                leds_arch_init
 .text          0x0000000000012a16       0x35 build/cooja/mtype63.a(moteid.o)
 .text          0x0000000000012a4b       0xb7 build/cooja/mtype63.a(pir-sensor.o)
 .text          0x0000000000012b02      0x148 build/cooja/mtype63.a(rs232.o)
                0x0000000000012b02                rs232_init
                0x0000000000012b08                rs232_set_speed
                0x0000000000012b17                rs232_set_input
                0x0000000000012b25                rs232_send
                0x0000000000012b49                rs232_print
                0x0000000000012b65                slip_arch_writeb
 .text          0x0000000000012c4a       0xb7 build/cooja/mtype63.a(vib-sensor.o)
 .text          0x0000000000012d01       0x38 build/cooja/mtype63.a(clock.o)
                0x0000000000012d01                clock_init
                0x0000000000012d07                clock_time
                0x0000000000012d11                clock_seconds
                0x0000000000012d27                clock_delay
 .text          0x0000000000012d39      0x219 build/cooja/mtype63.a(cooja-log.o)
                0x0000000000012d39                simlog_char
                0x0000000000012d7c                simlog
                0x0000000000012df2                log_message
                0x0000000000012e23                log_set_putchar_with_slip
                0x0000000000012e31                log_putchar
                0x0000000000012eac                log_puts
                0x0000000000012ed4                log_printf
 .text          0x0000000000012f52      0x2b9 build/cooja/mtype63.a(cfs-cooja.o)
                0x0000000000012f52                cfs_open
                0x0000000000012fbb                cfs_close
                0x0000000000012fc8                cfs_read
                0x000000000001305d                cfs_write
                0x0000000000013139                cfs_seek
                0x00000000000131c1                cfs_remove
                0x00000000000131e5                cfs_opendir
                0x00000000000131ef                cfs_readdir
                0x00000000000131f9                cfs_closedir
 .text          0x000000000001320b      0x620 build/cooja/mtype63.a(cooja-radio.o)
                0x000000000001324d                radio_set_channel
                0x000000000001325b                radio_set_txpower
                0x0000000000013273                radio_signal_strength_last
                0x000000000001327d                radio_signal_strength_current
                0x0000000000013287                radio_LQI
 .text          0x000000000001382b       0xee build/cooja/mtype63.a(eeprom.o)
                0x000000000001382b                eeprom_init
                0x0000000000013831                eeprom_read
                0x000000000001389f                eeprom_write
 .text          0x0000000000013919       0x2d build/cooja/mtype63.a(random.o)
                0x0000000000013919                random_init
                0x0000000000013939                random_rand
 .text          0x0000000000013946      0x29c build/cooja/mtype63.a(sensors.o)
                0x0000000000013981                sensors_first
                0x000000000001398b                sensors_next
                0x00000000000139a5                sensors_changed
                0x00000000000139d9                sensors_find
 .text          0x0000000000013be2      0x349 build/cooja/mtype63.a(leds.o)
                0x0000000000013be2                leds_init
                0x0000000000013c29                leds_single_on
                0x0000000000013c88                leds_single_off
                0x0000000000013ce7                leds_single_toggle
                0x0000000000013d19                leds_on
                0x0000000000013d9b                leds_off
                0x0000000000013e1d                leds_toggle
                0x0000000000013e72                leds_set
                0x0000000000013e9e                leds_get
 .text          0x0000000000013f2b      0x343 build/cooja/mtype63.a(gpio-hal-arch.o)
                0x0000000000013f2b                gpio_hal_arch_register_pin_callback
                0x0000000000013f97                gpio_hal_arch_init
                0x0000000000013fdc                gpio_hal_arch_no_port_interrupt_enable
                0x000000000001400c                gpio_hal_arch_no_port_interrupt_disable
                0x000000000001403c                gpio_hal_arch_no_port_pin_cfg_set
                0x0000000000014061                gpio_hal_arch_no_port_pin_cfg_get
                0x0000000000014087                gpio_hal_arch_no_port_pin_set_input
                0x0000000000014099                gpio_hal_arch_no_port_pin_set_output
                0x00000000000140ab                gpio_hal_arch_no_port_set_pin
                0x00000000000140cc                gpio_hal_arch_no_port_clear_pin
                0x00000000000140ed                gpio_hal_arch_no_port_read_pin
                0x0000000000014113                gpio_hal_arch_no_port_write_pin
                0x000000000001413d                gpio_hal_arch_no_port_set_pins
                0x0000000000014184                gpio_hal_arch_no_port_clear_pins
                0x00000000000141cb                gpio_hal_arch_no_port_read_pins
                0x000000000001420e                gpio_hal_arch_no_port_write_pins
 .text          0x000000000001426e       0x89 build/cooja/mtype63.a(buttons.o)
 .text          0x00000000000142f7      0x442 build/cooja/mtype63.a(oxygen_generato)
 .text          0x0000000000014739      0x6ee build/cooja/mtype63.a(coap-observe-cl)
                0x00000000000147d7                coap_obs_add_observee
                0x0000000000014873                coap_obs_remove_observee
                0x00000000000148a3                coap_get_obs_subject_by_token
                0x000000000001490b                coap_obs_remove_observee_by_token
                0x000000000001499e                coap_obs_remove_observee_by_url
                0x0000000000014af6                coap_handle_notification
                0x0000000000014c51                coap_generate_token
                0x0000000000014c73                coap_obs_request_registration
 .text          0x0000000000014e27      0x27b build/cooja/mtype63.a(coap-blocking-a)
                0x0000000000014e27                coap_blocking_request_callback
                0x0000000000014e51                coap_blocking_request
 .text          0x00000000000150a2      0xc26 build/cooja/mtype63.a(coap-engine.o)
                0x0000000000015137                coap_add_handler
                0x0000000000015154                coap_remove_handler
                0x0000000000015171                coap_call_handlers
                0x0000000000015279                coap_receive
                0x00000000000158b0                coap_engine_init
                0x000000000001590e                coap_activate_resource
                0x00000000000159b9                coap_get_first_resource
                0x00000000000159d2                coap_get_next_resource
 .text          0x0000000000015cc8      0x2d9 build/cooja/mtype63.a(coap-res-well-k)
 .text          0x0000000000015fa1      0x96a build/cooja/mtype63.a(coap-observe.o)
                0x00000000000160b6                coap_remove_observer
                0x00000000000160e6                coap_remove_observer_by_client
                0x000000000001614e                coap_remove_observer_by_token
                0x00000000000161e1                coap_remove_observer_by_uri
                0x0000000000016288                coap_remove_observer_by_mid
                0x0000000000016304                coap_notify_observers
                0x000000000001631d                coap_notify_observers_sub
                0x0000000000016787                coap_observe_handler
                0x00000000000168a2                coap_has_observers
 .text          0x000000000001690b      0x733 build/cooja/mtype63.a(coap-uip.o)
                0x000000000001690b                coap_endpoint_log
                0x0000000000016991                coap_endpoint_print
                0x0000000000016a17                coap_endpoint_snprint
                0x0000000000016b4a                coap_endpoint_copy
                0x0000000000016b87                coap_endpoint_cmp
                0x0000000000016c95                coap_endpoint_parse
                0x0000000000016e80                coap_endpoint_is_secure
                0x0000000000016e8f                coap_endpoint_is_connected
                0x0000000000016ec3                coap_endpoint_connect
                0x0000000000016edf                coap_endpoint_disconnect
                0x0000000000016ee5                coap_databuf
                0x0000000000016eef                coap_transport_init
                0x0000000000016f3f                coap_sendto
 .text          0x000000000001703e      0x324 build/cooja/mtype63.a(coap-timer.o)
                0x000000000001713b                coap_timer_stop
                0x0000000000017166                coap_timer_set
                0x00000000000171a9                coap_timer_reset
                0x00000000000171ec                coap_timer_time_to_next_expiration
                0x0000000000017258                coap_timer_run
                0x0000000000017324                coap_timer_init
 .text          0x0000000000017362      0x2c6 build/cooja/mtype63.a(coap-transactio)
                0x00000000000173c8                coap_new_transaction
                0x000000000001742e                coap_send_transaction
                0x000000000001758f                coap_clear_transaction
                0x00000000000175d7                coap_get_transaction_by_mid
 .text          0x0000000000017628     0x1c53 build/cooja/mtype63.a(coap.o)
                0x0000000000017b95                coap_init_connection
                0x0000000000017ba9                coap_get_mid
                0x0000000000017bc5                coap_init_message
                0x0000000000017c0e                coap_serialize_message
                0x0000000000018290                coap_parse_message
                0x00000000000188f7                coap_get_query_variable
                0x0000000000018939                coap_get_post_variable
                0x000000000001897d                coap_set_status_code
                0x00000000000189a2                coap_set_token
                0x00000000000189e9                coap_get_header_content_format
                0x0000000000018a1a                coap_set_header_content_format
                0x0000000000018a3d                coap_get_header_accept
                0x0000000000018a6e                coap_set_header_accept
                0x0000000000018a91                coap_get_header_max_age
                0x0000000000018ac2                coap_set_header_max_age
                0x0000000000018ae2                coap_get_header_etag
                0x0000000000018b14                coap_set_header_etag
                0x0000000000018b6b                coap_get_header_if_match
                0x0000000000018b9d                coap_set_header_if_match
                0x0000000000018bf4                coap_get_header_if_none_match
                0x0000000000018c0e                coap_set_header_if_none_match
                0x0000000000018c25                coap_get_header_proxy_uri
                0x0000000000018c53                coap_set_header_proxy_uri
                0x0000000000018c90                coap_get_header_uri_host
                0x0000000000018cbe                coap_set_header_uri_host
                0x0000000000018cfb                coap_get_header_uri_path
                0x0000000000018d29                coap_set_header_uri_path
                0x0000000000018d76                coap_get_header_uri_query
                0x0000000000018daa                coap_set_header_uri_query
                0x0000000000018e00                coap_get_header_location_path
                0x0000000000018e2e                coap_set_header_location_path
                0x0000000000018ec7                coap_get_header_location_query
                0x0000000000018ef5                coap_set_header_location_query
                0x0000000000018f42                coap_get_header_observe
                0x0000000000018f71                coap_set_header_observe
                0x0000000000018f91                coap_get_header_block2
                0x0000000000018ffd                coap_set_header_block2
                0x0000000000019074                coap_get_header_block1
                0x00000000000190e9                coap_set_header_block1
                0x0000000000019164                coap_get_header_size2
                0x0000000000019194                coap_set_header_size2
                0x00000000000191b7                coap_get_header_size1
                0x00000000000191e7                coap_set_header_size1
                0x000000000001920a                coap_get_payload
                0x0000000000019244                coap_set_payload
 .text          0x000000000001927b      0x332 build/cooja/mtype63.a(contiki-main.o)
                0x000000000001927b                main
 .text          0x00000000000195ad       0x92 build/cooja/mtype63.a(autostart.o)
                0x00000000000195ad                autostart_start
                0x00000000000195f7                autostart_exit
 .text          0x000000000001963f      0x355 build/cooja/mtype63.a(ctimer.o)
                0x0000000000019767                ctimer_init
                0x000000000001979a                ctimer_set
                0x00000000000197c0                ctimer_set_with_process
                0x000000000001983d                ctimer_reset
                0x0000000000019891                ctimer_restart
                0x00000000000198e5                ctimer_stop
                0x0000000000019935                ctimer_expired
 .text          0x0000000000019994      0x394 build/cooja/mtype63.a(log.o)
                0x0000000000019994                log_6addr
                0x00000000000199e7                log_6addr_compact_snprint
                0x0000000000019a85                log_6addr_compact
                0x0000000000019ad8                log_lladdr
                0x0000000000019b4a                log_lladdr_compact
                0x0000000000019bb2                log_set_level
                0x0000000000019c6d                log_get_level
                0x0000000000019ce6                log_level_to_str
 .text          0x0000000000019d28       0x1b build/cooja/mtype63.a(energest.o)
                0x0000000000019d28                energest_init
                0x0000000000019d2e                energest_flush
                0x0000000000019d34                energest_get_total_time
 .text          0x0000000000019d43      0x43f build/cooja/mtype63.a(etimer.o)
                0x0000000000019f67                etimer_request_poll
                0x0000000000019ff0                etimer_set
                0x000000000001a019                etimer_reset_with_new_interval
                0x000000000001a048                etimer_reset
                0x000000000001a06e                etimer_restart
                0x000000000001a094                etimer_adjust
                0x000000000001a0b1                etimer_expired
                0x000000000001a0c4                etimer_expiration_time
                0x000000000001a0d6                etimer_start_time
                0x000000000001a0e0                etimer_pending
                0x000000000001a0f2                etimer_next_expiration_time
                0x000000000001a10c                etimer_stop
 .text          0x000000000001a182       0x25 build/cooja/mtype63.a(node-id.o)
                0x000000000001a182                node_id_init
 .text          0x000000000001a1a7       0xeb build/cooja/mtype63.a(rtimer.o)
                0x000000000001a1a7                rtimer_init
                0x000000000001a1b5                rtimer_set
                0x000000000001a230                rtimer_run_next
 .text          0x000000000001a292      0x4fb build/cooja/mtype63.a(process.o)
                0x000000000001a292                process_alloc_event
                0x000000000001a2a7                process_start
                0x000000000001a481                process_exit
                0x000000000001a49e                process_init
                0x000000000001a633                process_run
                0x000000000001a666                process_nevents
                0x000000000001a681                process_post
                0x000000000001a714                process_post_synch
                0x000000000001a749                process_poll
                0x000000000001a779                process_is_running
 .text          0x000000000001a78d       0xb1 build/cooja/mtype63.a(timer.o)
                0x000000000001a78d                timer_set
                0x000000000001a7ab                timer_reset
                0x000000000001a7d8                timer_restart
                0x000000000001a7ed                timer_expired
                0x000000000001a81a                timer_remaining
 .text          0x000000000001a83e      0x28f build/cooja/mtype63.a(list.o)
                0x000000000001a83e                list_init
                0x000000000001a84d                list_head
                0x000000000001a857                list_copy
                0x000000000001a867                list_tail
                0x000000000001a89d                list_add
                0x000000000001a8e9                list_push
                0x000000000001a915                list_chop
                0x000000000001a97f                list_pop
                0x000000000001a9a7                list_remove
                0x000000000001aa0f                list_length
                0x000000000001aa3d                list_insert
                0x000000000001aa82                list_item_next
                0x000000000001aa99                list_contains
 .text          0x000000000001aacd      0x1b5 build/cooja/mtype63.a(memb.o)
                0x000000000001aacd                memb_init
                0x000000000001ab22                memb_alloc
                0x000000000001ab85                memb_free
                0x000000000001abfc                memb_inmemb
                0x000000000001ac3b                memb_numfree
 .text          0x000000000001ac82      0x41c build/cooja/mtype63.a(button-hal.o)
                0x000000000001adfb                button_hal_get_by_id
                0x000000000001ae39                button_hal_get_by_index
                0x000000000001ae65                button_hal_get_state
                0x000000000001aeb7                button_hal_init
 .text          0x000000000001b09e      0x1f3 build/cooja/mtype63.a(serial-line.o)
                0x000000000001b09e                serial_line_input_byte
                0x000000000001b25c                serial_line_init
 .text          0x000000000001b291      0x168 build/cooja/mtype63.a(gpio-hal.o)
                0x000000000001b291                gpio_hal_register_handler
                0x000000000001b2ae                gpio_hal_event_handler
                0x000000000001b30a                gpio_hal_init
                0x000000000001b329                gpio_hal_arch_port_toggle_pin
                0x000000000001b365                gpio_hal_arch_port_toggle_pins
                0x000000000001b393                gpio_hal_arch_no_port_toggle_pin
                0x000000000001b3d1                gpio_hal_arch_no_port_toggle_pins
 .text          0x000000000001b3f9      0x2e7 build/cooja/mtype63.a(queuebuf.o)
                0x000000000001b403                queuebuf_init
                0x000000000001b42c                queuebuf_numfree
                0x000000000001b444                queuebuf_new_from_packetbuf
                0x000000000001b4e3                queuebuf_update_attr_from_packetbuf
                0x000000000001b518                queuebuf_update_from_packetbuf
                0x000000000001b568                queuebuf_free
                0x000000000001b5b1                queuebuf_to_packetbuf
                0x000000000001b61d                queuebuf_dataptr
                0x000000000001b657                queuebuf_datalen
                0x000000000001b67a                queuebuf_addr
                0x000000000001b6af                queuebuf_attr
                0x000000000001b6da                queuebuf_debug_print
 .text          0x000000000001b6e0      0x407 build/cooja/mtype63.a(packetbuf.o)
                0x000000000001b6e0                packetbuf_clear
                0x000000000001b70b                packetbuf_copyfrom
                0x000000000001b75a                packetbuf_copyto
                0x000000000001b7ed                packetbuf_hdralloc
                0x000000000001b869                packetbuf_hdrreduce
                0x000000000001b8af                packetbuf_set_datalen
                0x000000000001b8c9                packetbuf_dataptr
                0x000000000001b8e6                packetbuf_hdrptr
                0x000000000001b8f0                packetbuf_datalen
                0x000000000001b8fc                packetbuf_hdrlen
                0x000000000001b913                packetbuf_totlen
                0x000000000001b929                packetbuf_remaininglen
                0x000000000001b93c                packetbuf_attr_clear
                0x000000000001b988                packetbuf_attr_copyto
                0x000000000001b9e0                packetbuf_attr_copyfrom
                0x000000000001ba38                packetbuf_set_attr
                0x000000000001ba62                packetbuf_attr
                0x000000000001ba7c                packetbuf_set_addr
                0x000000000001baad                packetbuf_addr
                0x000000000001baca                packetbuf_holds_broadcast
 .text          0x000000000001bae7       0xef build/cooja/mtype63.a(netstack.o)
                0x000000000001bae7                netstack_process_ip_callback
                0x000000000001bb78                netstack_ip_packet_processor_add
                0x000000000001bb9b                uip_ds6_ip_packet_processor_rm
                0x000000000001bbb8                netstack_init
 .text          0x000000000001bbd6       0x4f build/cooja/mtype63.a(linkaddr.o)
                0x000000000001bbd6                linkaddr_copy
                0x000000000001bbec                linkaddr_cmp
                0x000000000001bc0f                linkaddr_set_node_addr
 .text          0x000000000001bc25      0x1f6 build/cooja/mtype63.a(csma.o)
 .text          0x000000000001be1b      0x95d build/cooja/mtype63.a(csma-output.o)
                0x000000000001c4b2                csma_output_packet
                0x000000000001c73f                csma_output_init
 .text          0x000000000001c778      0xc11 build/cooja/mtype63.a(uip-ds6.o)
                0x000000000001c778                uip_ds6_default_prefix
                0x000000000001c782                uip_ds6_set_default_prefix
                0x000000000001c7ad                uip_ds6_init
                0x000000000001ca0f                uip_ds6_periodic
                0x000000000001ca96                uip_ds6_list_loop
                0x000000000001cb56                uip_ds6_prefix_add
                0x000000000001cc02                uip_ds6_prefix_rm
                0x000000000001cc15                uip_ds6_prefix_lookup
                0x000000000001cc54                uip_ds6_is_addr_onlink
                0x000000000001ccc7                uip_ds6_addr_add
                0x000000000001cde7                uip_ds6_addr_rm
                0x000000000001ce90                uip_ds6_addr_lookup
                0x000000000001cec9                uip_ds6_get_link_local
                0x000000000001cf4a                uip_ds6_get_global
                0x000000000001cfcb                uip_ds6_maddr_add
                0x000000000001d02b                uip_ds6_maddr_rm
                0x000000000001d03e                uip_ds6_maddr_lookup
                0x000000000001d077                uip_ds6_aaddr_add
                0x000000000001d0d7                uip_ds6_aaddr_rm
                0x000000000001d0ea                uip_ds6_aaddr_lookup
                0x000000000001d123                uip_ds6_select_src
                0x000000000001d26c                uip_ds6_set_addr_iid
                0x000000000001d297                uip_ds6_set_lladdr_from_iid
                0x000000000001d2c0                get_match_length
                0x000000000001d351                uip_ds6_compute_reachable_time
 .text          0x000000000001d389      0x128 build/cooja/mtype63.a(uip-udp-packet.)
                0x000000000001d389                uip_udp_packet_send
                0x000000000001d3e4                uip_udp_packet_sendto
 .text          0x000000000001d4b1      0x35b build/cooja/mtype63.a(uip-ds6-route.o)
                0x000000000001d502                uip_ds6_route_init
                0x000000000001d52c                uip_ds6_route_nexthop
                0x000000000001d536                uip_ds6_route_head
                0x000000000001d540                uip_ds6_route_next
                0x000000000001d54a                uip_ds6_route_is_nexthop
                0x000000000001d554                uip_ds6_route_num_routes
                0x000000000001d55e                uip_ds6_route_lookup
                0x000000000001d568                uip_ds6_route_add
                0x000000000001d57b                uip_ds6_route_rm
                0x000000000001d581                uip_ds6_route_rm_by_nexthop
                0x000000000001d587                uip_ds6_defrt_head
                0x000000000001d5a0                uip_ds6_defrt_add
                0x000000000001d64e                uip_ds6_defrt_rm
                0x000000000001d6b4                uip_ds6_defrt_lookup
                0x000000000001d71b                uip_ds6_defrt_choose
                0x000000000001d791                uip_ds6_defrt_periodic
 .text          0x000000000001d80c      0x6f7 build/cooja/mtype63.a(tcpip.o)
                0x000000000001d826                tcpip_output
                0x000000000001d8a5                udp_attach
                0x000000000001d8bd                udp_new
                0x000000000001d907                udp_broadcast_new
                0x000000000001da79                tcpip_input
                0x000000000001dc09                tcpip_ipv6_output
                0x000000000001ddfd                tcpip_poll_udp
                0x000000000001de1b                tcpip_uipcall
 .text          0x000000000001df03     0x1205 build/cooja/mtype63.a(uip6.o)
                0x000000000001dfb2                uip_chksum
                0x000000000001e089                uip_icmp6chksum
                0x000000000001e09e                uip_udpchksum
                0x000000000001e0b3                uip_init
                0x000000000001e0fc                uip_remove_ext_hdr
                0x000000000001e1d6                uip_udp_new
                0x000000000001e4ea                uip_process
                0x000000000001efe2                uip_htons
                0x000000000001f004                uip_htonl
                0x000000000001f042                uip_send
 .text          0x000000000001f108      0x369 build/cooja/mtype63.a(uip-ds6-nbr.o)
                0x000000000001f108                uip_ds6_neighbors_init
                0x000000000001f12c                uip_ds6_nbr_add
                0x000000000001f1b2                uip_ds6_nbr_rm
                0x000000000001f1fd                uip_ds6_nbr_update_ll
                0x000000000001f2eb                uip_ds6_nbr_get_ipaddr
                0x000000000001f300                uip_ds6_nbr_get_ll
                0x000000000001f31c                uip_ds6_nbr_num
                0x000000000001f365                uip_ds6_nbr_head
                0x000000000001f37e                uip_ds6_nbr_next
                0x000000000001f39a                uip_ds6_nbr_lookup
                0x000000000001f3f2                uip_ds6_nbr_ll_lookup
                0x000000000001f40e                uip_ds6_nbr_ipaddr_from_lladdr
                0x000000000001f437                uip_ds6_nbr_lladdr_from_ipaddr
                0x000000000001f46b                uip_ds6_link_callback
 .text          0x000000000001f471      0x6a7 build/cooja/mtype63.a(uip-nd6.o)
                0x000000000001faff                uip_nd6_init
 .text          0x000000000001fb18     0x2c17 build/cooja/mtype63.a(sicslowpan.o)
                0x000000000002011f                netstack_sniffer_add
                0x000000000002012d                netstack_sniffer_remove
                0x0000000000022703                sicslowpan_init
                0x0000000000022725                sicslowpan_get_last_rssi
 .text          0x000000000002272f      0x4d1 build/cooja/mtype63.a(uiplib.o)
                0x000000000002272f                uiplib_ip6addrconv
                0x00000000000228e7                uiplib_ip4addrconv
                0x00000000000229aa                uiplib_ipaddr_print
                0x00000000000229fd                uiplib_ipaddr_snprint
 .text          0x0000000000022c00      0x4c9 build/cooja/mtype63.a(rpl.o)
                0x0000000000022c00                rpl_lollipop_greater_than
                0x0000000000022c5a                rpl_get_global_address
                0x0000000000022d52                rpl_link_callback
                0x0000000000022d96                rpl_has_joined
                0x0000000000022dbb                rpl_is_reachable
                0x0000000000022e3c                rpl_reset_prefix
                0x0000000000022ea6                rpl_set_prefix_from_addr
                0x0000000000022f8b                rpl_set_prefix
                0x00000000000230a5                rpl_set_leaf_only
                0x00000000000230bd                rpl_get_leaf_only
 .text          0x00000000000230c9     0x138c build/cooja/mtype63.a(rpl-icmp6.o)
                0x00000000000231ee                rpl_icmp6_update_nbr_table
                0x0000000000023277                rpl_icmp6_dis_output
                0x00000000000238bd                rpl_icmp6_dio_output
                0x00000000000240bb                rpl_icmp6_dao_output
                0x000000000002439c                rpl_icmp6_dao_ack_output
                0x000000000002440c                rpl_icmp6_init
 .text          0x0000000000024455      0x264 build/cooja/mtype63.a(rpl-dag-root.o)
                0x0000000000024455                rpl_dag_root_print_links
                0x0000000000024581                rpl_dag_root_set_prefix
                0x00000000000245ad                rpl_dag_root_start
                0x000000000002468a                rpl_dag_root_is_root
 .text          0x00000000000246b9       0x30 build/cooja/mtype63.a(watchdog.o)
                0x00000000000246b9                watchdog_init
                0x00000000000246bf                watchdog_start
                0x00000000000246c5                watchdog_periodic
                0x00000000000246dd                watchdog_stop
                0x00000000000246e3                watchdog_reboot
 .text          0x00000000000246e9       0x4a build/cooja/mtype63.a(int-master.o)
                0x00000000000246e9                int_master_enable
                0x00000000000246f9                int_master_read_and_disable
                0x0000000000024716                int_master_status_set
                0x0000000000024724                int_master_is_enabled
 .text          0x0000000000024733      0x226 build/cooja/mtype63.a(coap-timer-defa)
 .text          0x0000000000024959       0xc7 build/cooja/mtype63.a(stimer.o)
                0x0000000000024959                stimer_set
                0x0000000000024977                stimer_reset
                0x00000000000249a4                stimer_restart
                0x00000000000249b9                stimer_expired
                0x00000000000249e4                stimer_remaining
                0x0000000000024a08                stimer_elapsed
 .text          0x0000000000024a20      0x156 build/cooja/mtype63.a(ringbuf.o)
                0x0000000000024a20                ringbuf_init
                0x0000000000024a52                ringbuf_put
                0x0000000000024ad0                ringbuf_get
                0x0000000000024b3d                ringbuf_size
                0x0000000000024b4f                ringbuf_elements
 .text          0x0000000000024b76       0x1f build/cooja/mtype63.a(assert.o)
                0x0000000000024b76                _xassert
 .text          0x0000000000024b95      0x79b build/cooja/mtype63.a(nbr-table.o)
                0x000000000002500e                nbr_table_register
                0x000000000002507b                nbr_table_is_registered
                0x00000000000250b6                nbr_table_head
                0x0000000000025111                nbr_table_next
                0x0000000000025172                nbr_table_add_lladdr
                0x000000000002524c                nbr_table_get_from_lladdr
                0x0000000000025298                nbr_table_remove
                0x00000000000252d0                nbr_table_lock
                0x00000000000252ea                nbr_table_unlock
                0x0000000000025304                nbr_table_get_lladdr
 .text          0x0000000000025330      0x3a5 build/cooja/mtype63.a(link-stats.o)
                0x0000000000025330                link_stats_from_lladdr
                0x000000000002534c                link_stats_get_lladdr
                0x0000000000025368                link_stats_is_fresh
                0x00000000000253a4                guess_etx_from_rssi
                0x0000000000025420                link_stats_packet_sent
                0x0000000000025540                link_stats_input_callback
                0x0000000000025650                link_stats_reset
                0x00000000000256a0                link_stats_init
 .text          0x00000000000256d5      0x187 build/cooja/mtype63.a(mac-sequence.o)
                0x00000000000256d5                mac_sequence_is_duplicate
                0x0000000000025775                mac_sequence_register_seqno
 .text          0x000000000002585c       0x23 build/cooja/mtype63.a(mac.o)
                0x000000000002585c                mac_call_sent_callback
 .text          0x000000000002587f      0x432 build/cooja/mtype63.a(framer-802154.o)
                0x0000000000025a0e                framer_802154_setup_params
 .text          0x0000000000025cb1      0xb6f build/cooja/mtype63.a(frame802154.o)
                0x0000000000025ce2                frame802154_get_pan_id
                0x0000000000025cee                frame802154_set_pan_id
                0x0000000000025d08                frame802154_has_panid
                0x0000000000025eb7                frame802154_check_dest_panid
                0x0000000000025f3f                frame802154_is_broadcast_addr
                0x0000000000025f8c                frame802154_extract_linkaddr
                0x00000000000261f1                frame802154_hdrlen
                0x0000000000026264                frame802154_create_fcf
                0x000000000002631c                frame802154_create
                0x0000000000026491                frame802154_parse_fcf
                0x0000000000026573                frame802154_parse
 .text          0x0000000000026820       0x2d build/cooja/mtype63.a(csma-security.o)
                0x0000000000026820                csma_security_create_frame
                0x000000000002683e                csma_security_parse_frame
 .text          0x000000000002684d      0x4e4 build/cooja/mtype63.a(uipbuf.o)
                0x000000000002684d                uipbuf_clear
                0x0000000000026874                uipbuf_add_ext_hdr
                0x00000000000268f4                uipbuf_set_len
                0x0000000000026921                uipbuf_set_len_field
                0x000000000002694d                uipbuf_get_len_field
                0x000000000002696d                uipbuf_get_next_header
                0x0000000000026a9f                uipbuf_get_last_header
                0x0000000000026b18                uipbuf_search_header
                0x0000000000026bce                uipbuf_get_attr
                0x0000000000026bf5                uipbuf_set_attr
                0x0000000000026c2c                uipbuf_set_default_attr
                0x0000000000026c63                uipbuf_clear_attr
                0x0000000000026c87                uipbuf_set_attr_flag
                0x0000000000026ca8                uipbuf_clr_attr_flag
                0x0000000000026ccf                uipbuf_is_attr_flag
                0x0000000000026cf3                uipbuf_init
 .text          0x0000000000026d31      0x73f build/cooja/mtype63.a(uip-icmp6.o)
                0x0000000000026da6                uip_icmp6_input
                0x0000000000026dfd                uip_icmp6_register_input_handler
                0x0000000000026f50                uip_icmp6_error_output
                0x0000000000027201                uip_icmp6_send
                0x00000000000273f8                uip_icmp6_echo_reply_callback_add
                0x000000000002742a                uip_icmp6_echo_reply_callback_rm
                0x0000000000027447                uip_icmp6_init
 .text          0x0000000000027470      0x69b build/cooja/mtype63.a(uip-sr.o)
                0x0000000000027470                uip_sr_num_nodes
                0x00000000000274fe                uip_sr_get_node
                0x0000000000027555                uip_sr_is_addr_reachable
                0x0000000000027603                uip_sr_expire_parent
                0x000000000002764c                uip_sr_update_node
                0x000000000002777c                uip_sr_init
                0x00000000000277b0                uip_sr_node_head
                0x00000000000277c9                uip_sr_node_next
                0x00000000000277df                uip_sr_periodic
                0x00000000000278e5                uip_sr_free_all
                0x0000000000027955                uip_sr_link_snprint
 .text          0x0000000000027b0b      0x146 build/cooja/mtype63.a(uip-packetqueue)
                0x0000000000027b39                uip_packetqueue_new
                0x0000000000027b48                uip_packetqueue_alloc
                0x0000000000027ba3                uip_packetqueue_free
                0x0000000000027bea                uip_packetqueue_buf
                0x0000000000027c07                uip_packetqueue_buflen
                0x0000000000027c28                uip_packetqueue_set_buflen
 .text          0x0000000000027c51      0x1b0 build/cooja/mtype63.a(rpl-nbr-policy.)
                0x0000000000027dbe                rpl_nbr_policy_find_removable
 .text          0x0000000000027e01      0x915 build/cooja/mtype63.a(rpl-neighbor.o)
                0x0000000000027e7d                rpl_neighbor_snprint
                0x0000000000028130                rpl_neighbor_print_list
                0x00000000000281e5                rpl_neighbor_count
                0x000000000002828c                rpl_neighbor_get_from_lladdr
                0x00000000000282a8                rpl_neighbor_is_acceptable_parent
                0x00000000000282dc                rpl_neighbor_get_link_metric
                0x0000000000028310                rpl_neighbor_rank_via_nbr
                0x0000000000028344                rpl_neighbor_get_lladdr
                0x0000000000028360                rpl_neighbor_get_ipaddr
                0x0000000000028387                rpl_neighbor_get_link_stats
                0x00000000000283ae                rpl_neighbor_is_fresh
                0x00000000000283d5                rpl_neighbor_is_reachable
                0x0000000000028420                rpl_neighbor_is_parent
                0x000000000002844a                rpl_neighbor_set_preferred_parent
                0x00000000000284e1                rpl_neighbor_remove_all
                0x000000000002853d                rpl_neighbor_get_from_ipaddr
                0x000000000002864b                rpl_neighbor_select_best
                0x00000000000286f7                rpl_neighbor_init
 .text          0x0000000000028716      0xe69 build/cooja/mtype63.a(rpl-dag.o)
                0x0000000000028716                rpl_dag_state_to_str
                0x0000000000028755                rpl_dag_get_root_ipaddr
                0x000000000002879d                rpl_dag_leave
                0x0000000000028826                rpl_dag_poison_and_leave
                0x000000000002883e                rpl_dag_periodic
                0x00000000000288c6                rpl_is_addr_in_our_dag
                0x000000000002890a                rpl_get_default_instance
                0x0000000000028926                rpl_get_any_dag
                0x000000000002897f                rpl_refresh_routes
                0x00000000000289bf                rpl_global_repair
                0x0000000000028a58                rpl_local_repair
                0x0000000000028aa2                rpl_dag_ready_to_advertise
                0x0000000000028ae5                rpl_dag_update_state
                0x0000000000029212                rpl_process_dio
                0x0000000000029290                rpl_process_dis
                0x00000000000292d5                rpl_process_dao
                0x0000000000029364                rpl_process_dao_ack
                0x00000000000293fb                rpl_process_hbh
                0x000000000002944b                rpl_dag_init_root
                0x000000000002955f                rpl_dag_init
 .text          0x000000000002957f      0x9e7 build/cooja/mtype63.a(rpl-timers.o)
                0x000000000002957f                rpl_timers_schedule_periodic_dis
                0x00000000000296cd                rpl_timers_dio_reset
                0x00000000000297db                rpl_timers_schedule_unicast_dio
                0x000000000002992f                rpl_timers_schedule_dao
                0x00000000000299ee                rpl_timers_schedule_dao_ack
                0x0000000000029a74                rpl_timers_notify_dao_ack
                0x0000000000029ad2                get_probing_delay
                0x0000000000029b06                get_probing_target
                0x0000000000029cf0                rpl_schedule_probing
                0x0000000000029d1e                rpl_schedule_probing_now
                0x0000000000029d88                rpl_timers_unschedule_leaving
                0x0000000000029dc0                rpl_timers_schedule_leaving
                0x0000000000029e01                rpl_timers_init
                0x0000000000029e91                rpl_timers_stop_dag_timers
                0x0000000000029f0a                rpl_timers_unschedule_state_update
                0x0000000000029f2e                rpl_timers_schedule_state_update
 .text          0x0000000000029f66      0xb8e build/cooja/mtype63.a(rpl-ext-header.)
                0x0000000000029f66                rpl_ext_header_srh_get_next_hop
                0x000000000002a04d                rpl_ext_header_srh_update
                0x000000000002a5b9                rpl_ext_header_hbh_update
                0x000000000002a8b9                rpl_ext_header_update
                0x000000000002a942                rpl_ext_header_remove
 .text          0x000000000002aaf4      0x31b build/cooja/mtype63.a(rpl-mrhof.o)
 *fill*         0x000000000002ae0f        0x1 
 .text          0x000000000002ae10      0x122 /usr/lib/gcc/i686-linux-gnu/5/libgcc.a(_udivdi3.o)
                0x000000000002ae10                __udivdi3
 .text          0x000000000002af32        0x0 /usr/lib/gcc/i686-linux-gnu/5/crtendS.o
 .text          0x000000000002af32        0x0 /usr/lib/gcc/i686-linux-gnu/5/../../../i386-linux-gnu/crtn.o
 *(.gnu.warning)

.fini           0x000000000002af34       0x14
 *(SORT(.fini))
 .fini          0x000000000002af34        0xf /usr/lib/gcc/i686-linux-gnu/5/../../../i386-linux-gnu/crti.o
                0x000000000002af34                _fini
 .fini          0x000000000002af43        0x5 /usr/lib/gcc/i686-linux-gnu/5/../../../i386-linux-gnu/crtn.o
                [!provide]                        PROVIDE (__etext, .)
                [!provide]                        PROVIDE (_etext, .)
                [!provide]                        PROVIDE (etext, .)

.rodata         0x000000000002af60      0xd8b
 *(.rodata .rodata.* .gnu.linkonce.r.*)
 .rodata        0x000000000002af60      0x2b9 oxygen_actuator.o
                0x000000000002b074                autostart_processes
 *fill*         0x000000000002b219        0x3 
 .rodata        0x000000000002b21c        0x8 build/cooja/mtype63.a(beep.o)
                0x000000000002b21c                beep_interface
 .rodata        0x000000000002b224        0xe build/cooja/mtype63.a(leds-arch.o)
                0x000000000002b224                leds_interface
                0x000000000002b22c                leds_arch_leds
 *fill*         0x000000000002b232        0x2 
 .rodata        0x000000000002b234        0x8 build/cooja/mtype63.a(moteid.o)
                0x000000000002b234                moteid_interface
 .rodata        0x000000000002b23c       0x1c build/cooja/mtype63.a(pir-sensor.o)
                0x000000000002b23c                pir_interface
                0x000000000002b248                pir_sensor
 .rodata        0x000000000002b258        0xe build/cooja/mtype63.a(rs232.o)
                0x000000000002b258                rs232_interface
 *fill*         0x000000000002b266        0x2 
 .rodata        0x000000000002b268       0x24 build/cooja/mtype63.a(vib-sensor.o)
                0x000000000002b268                vib_interface
                0x000000000002b27c                vib_sensor
 .rodata        0x000000000002b28c        0x8 build/cooja/mtype63.a(clock.o)
                0x000000000002b28c                clock_interface
 .rodata        0x000000000002b294        0x8 build/cooja/mtype63.a(cooja-log.o)
                0x000000000002b294                simlog_interface
 .rodata        0x000000000002b29c       0x2f build/cooja/mtype63.a(cfs-cooja.o)
                0x000000000002b29c                cfs_interface
 *fill*         0x000000000002b2cb       0x15 
 .rodata        0x000000000002b2e0       0xb8 build/cooja/mtype63.a(cooja-radio.o)
                0x000000000002b2e0                radio_interface
                0x000000000002b360                cooja_radio_driver
 .rodata        0x000000000002b398        0x8 build/cooja/mtype63.a(eeprom.o)
                0x000000000002b398                eeprom_interface
 .rodata        0x000000000002b3a0        0x8 build/cooja/mtype63.a(sensors.o)
 .rodata        0x000000000002b3a8       0x2c build/cooja/mtype63.a(buttons.o)
                0x000000000002b3a8                button_interface
                0x000000000002b3bc                button_hal_button_count
                0x000000000002b3c4                button_sensor
 *fill*         0x000000000002b3d4        0x4 
 .rodata        0x000000000002b3d8      0x158 build/cooja/mtype63.a(oxygen_generato)
 .rodata        0x000000000002b530       0x41 build/cooja/mtype63.a(coap-engine.o)
 .rodata        0x000000000002b571       0x19 build/cooja/mtype63.a(coap-res-well-k)
 .rodata        0x000000000002b58a       0x11 build/cooja/mtype63.a(coap-observe.o)
 .rodata        0x000000000002b59b       0x35 build/cooja/mtype63.a(coap-uip.o)
 .rodata        0x000000000002b5d0      0x1ac build/cooja/mtype63.a(coap.o)
 .rodata        0x000000000002b77c       0xf8 build/cooja/mtype63.a(contiki-main.o)
 .rodata        0x000000000002b874        0xf build/cooja/mtype63.a(ctimer.o)
 *fill*         0x000000000002b883        0x1 
 .rodata        0x000000000002b884       0xc4 build/cooja/mtype63.a(log.o)
 .rodata        0x000000000002b948        0xc build/cooja/mtype63.a(etimer.o)
 .rodata        0x000000000002b954       0x13 build/cooja/mtype63.a(button-hal.o)
 .rodata        0x000000000002b967        0xe build/cooja/mtype63.a(serial-line.o)
 *fill*         0x000000000002b975        0x3 
 .rodata        0x000000000002b978        0x8 build/cooja/mtype63.a(linkaddr.o)
                0x000000000002b978                linkaddr_null
 .rodata        0x000000000002b980       0x24 build/cooja/mtype63.a(csma.o)
                0x000000000002b988                csma_driver
 .rodata        0x000000000002b9a4       0x24 build/cooja/mtype63.a(csma-output.o)
 .rodata        0x000000000002b9c8       0x4d build/cooja/mtype63.a(uip-ds6-route.o)
 .rodata        0x000000000002ba15        0xd build/cooja/mtype63.a(tcpip.o)
 *fill*         0x000000000002ba22        0x2 
 .rodata        0x000000000002ba24       0x30 build/cooja/mtype63.a(sicslowpan.o)
                0x000000000002ba24                unc_llconf
                0x000000000002ba28                unc_ctxconf
                0x000000000002ba2c                unc_mxconf
                0x000000000002ba30                llprefix
                0x000000000002ba44                sicslowpan_driver
 .rodata        0x000000000002ba54       0x2d build/cooja/mtype63.a(uiplib.o)
 *fill*         0x000000000002ba81       0x1f 
 .rodata        0x000000000002baa0       0x74 build/cooja/mtype63.a(rpl.o)
                0x000000000002bac0                rpl_lite_driver
 .rodata        0x000000000002bb14       0x20 build/cooja/mtype63.a(coap-timer-defa)
                0x000000000002bb28                coap_timer_default_driver
 .rodata        0x000000000002bb34       0x25 build/cooja/mtype63.a(assert.o)
 *fill*         0x000000000002bb59        0x3 
 .rodata        0x000000000002bb5c        0xc build/cooja/mtype63.a(framer-802154.o)
                0x000000000002bb5c                framer_802154
 .rodata        0x000000000002bb68       0x44 build/cooja/mtype63.a(uip-sr.o)
 .rodata        0x000000000002bbac       0x58 build/cooja/mtype63.a(rpl-neighbor.o)
 .rodata        0x000000000002bc04       0xdb build/cooja/mtype63.a(rpl-dag.o)
 .rodata        0x000000000002bcdf        0xc build/cooja/mtype63.a(rpl-timers.o)

.rodata1
 *(.rodata1)

.eh_frame_hdr   0x000000000002bcec     0x1a6c
 *(.eh_frame_hdr)
 .eh_frame_hdr  0x000000000002bcec     0x1a6c oxygen_actuator.o
                0x000000000002bcec                __GNU_EH_FRAME_HDR
 *(.eh_frame_entry .eh_frame_entry.*)

.eh_frame       0x000000000002d758     0x6b30
 *(.eh_frame)
 .eh_frame      0x000000000002d758       0x3c /usr/lib/gcc/i686-linux-gnu/5/../../../i386-linux-gnu/crti.o
                                         0x40 (size before relaxing)
 .eh_frame      0x000000000002d794       0xa4 oxygen_actuator.o
                                         0xbc (size before relaxing)
 .eh_frame      0x000000000002d838      0x178 build/cooja/mtype63.o
                                        0x190 (size before relaxing)
 .eh_frame      0x000000000002d9b0       0x40 build/cooja/mtype63.a(simEnvChange.o)
                                         0x58 (size before relaxing)
 .eh_frame      0x000000000002d9f0       0x60 build/cooja/mtype63.a(cooja_mt.o)
                                         0x78 (size before relaxing)
 .eh_frame      0x000000000002da50       0x80 build/cooja/mtype63.a(cooja_mtarch.o)
                                         0x98 (size before relaxing)
 .eh_frame      0x000000000002dad0       0xc8 build/cooja/mtype63.a(rtimer-arch.o)
                                         0xe0 (size before relaxing)
 .eh_frame      0x000000000002db98      0x160 build/cooja/mtype63.a(beep.o)
                                        0x178 (size before relaxing)
 .eh_frame      0x000000000002dcf8       0x80 build/cooja/mtype63.a(leds-arch.o)
                                         0x98 (size before relaxing)
 .eh_frame      0x000000000002dd78       0x40 build/cooja/mtype63.a(moteid.o)
                                         0x58 (size before relaxing)
 .eh_frame      0x000000000002ddb8       0xa0 build/cooja/mtype63.a(pir-sensor.o)
                                         0xb8 (size before relaxing)
 .eh_frame      0x000000000002de58      0x100 build/cooja/mtype63.a(rs232.o)
                                        0x118 (size before relaxing)
 .eh_frame      0x000000000002df58       0xa0 build/cooja/mtype63.a(vib-sensor.o)
                                         0xb8 (size before relaxing)
 .eh_frame      0x000000000002dff8       0xc0 build/cooja/mtype63.a(clock.o)
                                         0xd8 (size before relaxing)
 .eh_frame      0x000000000002e0b8      0x120 build/cooja/mtype63.a(cooja-log.o)
                                        0x138 (size before relaxing)
 .eh_frame      0x000000000002e1d8      0x160 build/cooja/mtype63.a(cfs-cooja.o)
                                        0x178 (size before relaxing)
 .eh_frame      0x000000000002e338      0x340 build/cooja/mtype63.a(cooja-radio.o)
                                        0x358 (size before relaxing)
 .eh_frame      0x000000000002e678       0xa0 build/cooja/mtype63.a(eeprom.o)
                                         0xb8 (size before relaxing)
 .eh_frame      0x000000000002e718       0x40 build/cooja/mtype63.a(random.o)
                                         0x58 (size before relaxing)
 .eh_frame      0x000000000002e758       0xc0 build/cooja/mtype63.a(sensors.o)
                                         0xd8 (size before relaxing)
 .eh_frame      0x000000000002e818      0x120 build/cooja/mtype63.a(leds.o)
                                        0x138 (size before relaxing)
 .eh_frame      0x000000000002e938      0x220 build/cooja/mtype63.a(gpio-hal-arch.o)
                                        0x238 (size before relaxing)
 .eh_frame      0x000000000002eb58       0xa0 build/cooja/mtype63.a(buttons.o)
                                         0xb8 (size before relaxing)
 .eh_frame      0x000000000002ebf8       0x80 build/cooja/mtype63.a(oxygen_generato)
                                         0x98 (size before relaxing)
 .eh_frame      0x000000000002ec78      0x1c4 build/cooja/mtype63.a(coap-observe-cl)
                                        0x1dc (size before relaxing)
 .eh_frame      0x000000000002ee3c       0x44 build/cooja/mtype63.a(coap-blocking-a)
                                         0x5c (size before relaxing)
 .eh_frame      0x000000000002ee80      0x220 build/cooja/mtype63.a(coap-engine.o)
                                        0x238 (size before relaxing)
 .eh_frame      0x000000000002f0a0       0x24 build/cooja/mtype63.a(coap-res-well-k)
                                         0x3c (size before relaxing)
 .eh_frame      0x000000000002f0c4      0x188 build/cooja/mtype63.a(coap-observe.o)
                                        0x1a0 (size before relaxing)
 .eh_frame      0x000000000002f24c      0x250 build/cooja/mtype63.a(coap-uip.o)
                                        0x268 (size before relaxing)
 .eh_frame      0x000000000002f49c      0x114 build/cooja/mtype63.a(coap-timer.o)
                                        0x12c (size before relaxing)
 .eh_frame      0x000000000002f5b0      0x100 build/cooja/mtype63.a(coap-transactio)
                                        0x118 (size before relaxing)
 .eh_frame      0x000000000002f6b0      0x6ec build/cooja/mtype63.a(coap.o)
                                        0x704 (size before relaxing)
 .eh_frame      0x000000000002fd9c       0x30 build/cooja/mtype63.a(contiki-main.o)
                                         0x48 (size before relaxing)
 .eh_frame      0x000000000002fdcc       0x40 build/cooja/mtype63.a(autostart.o)
                                         0x58 (size before relaxing)
 .eh_frame      0x000000000002fe0c      0x100 build/cooja/mtype63.a(ctimer.o)
                                        0x118 (size before relaxing)
 .eh_frame      0x000000000002ff0c      0x100 build/cooja/mtype63.a(log.o)
                                        0x118 (size before relaxing)
 .eh_frame      0x000000000003000c       0x60 build/cooja/mtype63.a(energest.o)
                                         0x78 (size before relaxing)
 .eh_frame      0x000000000003006c      0x1e0 build/cooja/mtype63.a(etimer.o)
                                        0x1f8 (size before relaxing)
 .eh_frame      0x000000000003024c       0x20 build/cooja/mtype63.a(node-id.o)
                                         0x38 (size before relaxing)
 .eh_frame      0x000000000003026c       0x60 build/cooja/mtype63.a(rtimer.o)
                                         0x78 (size before relaxing)
 .eh_frame      0x00000000000302cc      0x1c4 build/cooja/mtype63.a(process.o)
                                        0x1dc (size before relaxing)
 .eh_frame      0x0000000000030490       0xa4 build/cooja/mtype63.a(timer.o)
                                         0xbc (size before relaxing)
 .eh_frame      0x0000000000030534      0x1a0 build/cooja/mtype63.a(list.o)
                                        0x1b8 (size before relaxing)
 .eh_frame      0x00000000000306d4       0xa0 build/cooja/mtype63.a(memb.o)
                                         0xb8 (size before relaxing)
 .eh_frame      0x0000000000030774      0x144 build/cooja/mtype63.a(button-hal.o)
                                        0x15c (size before relaxing)
 .eh_frame      0x00000000000308b8       0x60 build/cooja/mtype63.a(serial-line.o)
                                         0x78 (size before relaxing)
 .eh_frame      0x0000000000030918       0xe0 build/cooja/mtype63.a(gpio-hal.o)
                                         0xf8 (size before relaxing)
 .eh_frame      0x00000000000309f8      0x1a0 build/cooja/mtype63.a(queuebuf.o)
                                        0x1b8 (size before relaxing)
 .eh_frame      0x0000000000030b98      0x28c build/cooja/mtype63.a(packetbuf.o)
                                        0x2a4 (size before relaxing)
 .eh_frame      0x0000000000030e24       0x80 build/cooja/mtype63.a(netstack.o)
                                         0x98 (size before relaxing)
 .eh_frame      0x0000000000030ea4       0x60 build/cooja/mtype63.a(linkaddr.o)
                                         0x78 (size before relaxing)
 .eh_frame      0x0000000000030f04       0xe0 build/cooja/mtype63.a(csma.o)
                                         0xf8 (size before relaxing)
 .eh_frame      0x0000000000030fe4      0x1d0 build/cooja/mtype63.a(csma-output.o)
                                        0x1e8 (size before relaxing)
 .eh_frame      0x00000000000311b4      0x328 build/cooja/mtype63.a(uip-ds6.o)
                                        0x340 (size before relaxing)
 .eh_frame      0x00000000000314dc       0x40 build/cooja/mtype63.a(uip-udp-packet.)
                                         0x58 (size before relaxing)
 .eh_frame      0x000000000003151c      0x220 build/cooja/mtype63.a(uip-ds6-route.o)
                                        0x238 (size before relaxing)
 .eh_frame      0x000000000003173c      0x244 build/cooja/mtype63.a(tcpip.o)
                                        0x25c (size before relaxing)
 .eh_frame      0x0000000000031980      0x1e8 build/cooja/mtype63.a(uip6.o)
                                        0x200 (size before relaxing)
 .eh_frame      0x0000000000031b68      0x1c0 build/cooja/mtype63.a(uip-ds6-nbr.o)
                                        0x1d8 (size before relaxing)
 .eh_frame      0x0000000000031d28       0x84 build/cooja/mtype63.a(uip-nd6.o)
                                         0x9c (size before relaxing)
 .eh_frame      0x0000000000031dac      0x2f8 build/cooja/mtype63.a(sicslowpan.o)
                                        0x310 (size before relaxing)
 .eh_frame      0x00000000000320a4       0x88 build/cooja/mtype63.a(uiplib.o)
                                         0xa0 (size before relaxing)
 .eh_frame      0x000000000003212c      0x1e0 build/cooja/mtype63.a(rpl.o)
                                        0x1f8 (size before relaxing)
 .eh_frame      0x000000000003230c      0x1c4 build/cooja/mtype63.a(rpl-icmp6.o)
                                        0x1dc (size before relaxing)
 .eh_frame      0x00000000000324d0       0xa0 build/cooja/mtype63.a(rpl-dag-root.o)
                                         0xb8 (size before relaxing)
 .eh_frame      0x0000000000032570       0xa0 build/cooja/mtype63.a(watchdog.o)
                                         0xb8 (size before relaxing)
 .eh_frame      0x0000000000032610       0x80 build/cooja/mtype63.a(int-master.o)
                                         0x98 (size before relaxing)
 .eh_frame      0x0000000000032690       0xa4 build/cooja/mtype63.a(coap-timer-defa)
                                         0xbc (size before relaxing)
 .eh_frame      0x0000000000032734       0xc4 build/cooja/mtype63.a(stimer.o)
                                         0xdc (size before relaxing)
 .eh_frame      0x00000000000327f8       0xa0 build/cooja/mtype63.a(ringbuf.o)
                                         0xb8 (size before relaxing)
 .eh_frame      0x0000000000032898       0x20 build/cooja/mtype63.a(assert.o)
                                         0x38 (size before relaxing)
 .eh_frame      0x00000000000328b8      0x2ac build/cooja/mtype63.a(nbr-table.o)
                                        0x2c4 (size before relaxing)
 .eh_frame      0x0000000000032b64      0x120 build/cooja/mtype63.a(link-stats.o)
                                        0x138 (size before relaxing)
 .eh_frame      0x0000000000032c84       0x48 build/cooja/mtype63.a(mac-sequence.o)
                                         0x60 (size before relaxing)
 .eh_frame      0x0000000000032ccc       0x20 build/cooja/mtype63.a(mac.o)
                                         0x38 (size before relaxing)
 .eh_frame      0x0000000000032cec       0xa4 build/cooja/mtype63.a(framer-802154.o)
                                         0xbc (size before relaxing)
 .eh_frame      0x0000000000032d90      0x1a4 build/cooja/mtype63.a(frame802154.o)
                                        0x1bc (size before relaxing)
 .eh_frame      0x0000000000032f34       0x40 build/cooja/mtype63.a(csma-security.o)
                                         0x58 (size before relaxing)
 .eh_frame      0x0000000000032f74      0x200 build/cooja/mtype63.a(uipbuf.o)
                                        0x218 (size before relaxing)
 .eh_frame      0x0000000000033174      0x150 build/cooja/mtype63.a(uip-icmp6.o)
                                        0x168 (size before relaxing)
 .eh_frame      0x00000000000332c4      0x184 build/cooja/mtype63.a(uip-sr.o)
                                        0x19c (size before relaxing)
 .eh_frame      0x0000000000033448       0xe0 build/cooja/mtype63.a(uip-packetqueue)
                                         0xf8 (size before relaxing)
 .eh_frame      0x0000000000033528       0x80 build/cooja/mtype63.a(rpl-nbr-policy.)
                                         0x98 (size before relaxing)
 .eh_frame      0x00000000000335a8      0x2d4 build/cooja/mtype63.a(rpl-neighbor.o)
                                        0x2ec (size before relaxing)
 .eh_frame      0x000000000003387c      0x370 build/cooja/mtype63.a(rpl-dag.o)
                                        0x388 (size before relaxing)
 .eh_frame      0x0000000000033bec      0x3a8 build/cooja/mtype63.a(rpl-timers.o)
                                        0x3c0 (size before relaxing)
 .eh_frame      0x0000000000033f94      0x124 build/cooja/mtype63.a(rpl-ext-header.)
                                        0x13c (size before relaxing)
 .eh_frame      0x00000000000340b8      0x148 build/cooja/mtype63.a(rpl-mrhof.o)
                                        0x160 (size before relaxing)
 .eh_frame      0x0000000000034200       0x84 /usr/lib/gcc/i686-linux-gnu/5/libgcc.a(_udivdi3.o)
                                         0x9c (size before relaxing)
 .eh_frame      0x0000000000034284        0x4 /usr/lib/gcc/i686-linux-gnu/5/crtendS.o
 *(.eh_frame.*)

.gcc_except_table
 *(.gcc_except_table .gcc_except_table.*)

.gnu_extab
 *(.gnu_extab*)

.exception_ranges
 *(.exception_ranges .exception_ranges*)
                0x0000000000035f10                . = DATA_SEGMENT_ALIGN (0x1000, 0x1000)

.eh_frame
 *(.eh_frame)
 *(.eh_frame.*)

.gnu_extab
 *(.gnu_extab)

.gcc_except_table
 *(.gcc_except_table .gcc_except_table.*)

.exception_ranges
 *(.exception_ranges .exception_ranges*)

.tdata
 *(.tdata .tdata.* .gnu.linkonce.td.*)

.tbss
 *(.tbss .tbss.* .gnu.linkonce.tb.*)
 *(.tcommon)

.preinit_array
 *(.preinit_array)

.init_array     0x0000000000035f10        0x4
 *(SORT(.init_array.*) SORT(.ctors.*))
 *(.init_array EXCLUDE_FILE(*crtend?.o *crtend.o *crtbegin?.o *crtbegin.o) .ctors)
 .init_array    0x0000000000035f10        0x4 /usr/lib/gcc/i686-linux-gnu/5/crtbeginS.o

.fini_array     0x0000000000035f14        0x4
 *(SORT(.fini_array.*) SORT(.dtors.*))
 *(.fini_array EXCLUDE_FILE(*crtend?.o *crtend.o *crtbegin?.o *crtbegin.o) .dtors)
 .fini_array    0x0000000000035f14        0x4 /usr/lib/gcc/i686-linux-gnu/5/crtbeginS.o

.ctors
 *crtbegin.o(.ctors)
 *crtbegin?.o(.ctors)
 *(EXCLUDE_FILE(*crtend?.o *crtend.o) .ctors)
 *(SORT(.ctors.*))
 *(.ctors)

.dtors
 *crtbegin.o(.dtors)
 *crtbegin?.o(.dtors)
 *(EXCLUDE_FILE(*crtend?.o *crtend.o) .dtors)
 *(SORT(.dtors.*))
 *(.dtors)

.jcr            0x0000000000035f18        0x4
 *(.jcr)
 .jcr           0x0000000000035f18        0x0 /usr/lib/gcc/i686-linux-gnu/5/crtbeginS.o
 .jcr           0x0000000000035f18        0x4 /usr/lib/gcc/i686-linux-gnu/5/crtendS.o

.data.rel.ro
 *(.data.rel.ro.local* .gnu.linkonce.d.rel.ro.local.*)
 *(.data.rel.ro .data.rel.ro.* .gnu.linkonce.d.rel.ro.*)

.dynamic        0x0000000000035f1c       0xd0
 *(.dynamic)
 .dynamic       0x0000000000035f1c       0xd0 /usr/lib/gcc/i686-linux-gnu/5/../../../i386-linux-gnu/crti.o
                0x0000000000035f1c                _DYNAMIC

.got            0x0000000000035fec       0x14
 *(.got)
 .got           0x0000000000035fec       0x14 /usr/lib/gcc/i686-linux-gnu/5/../../../i386-linux-gnu/crti.o
 *(.igot)
                0x0000000000036ff4                . = DATA_SEGMENT_RELRO_END (., (SIZEOF (.got.plt) >= 0xc)?0xc:0x0)

.got.plt        0x0000000000036000        0xc
 *(.got.plt)
 .got.plt       0x0000000000036000        0xc /usr/lib/gcc/i686-linux-gnu/5/../../../i386-linux-gnu/crti.o
                0x0000000000036000                _GLOBAL_OFFSET_TABLE_
 *(.igot.plt)

.data           0x0000000000036020      0x464
 *(.data .data.* .gnu.linkonce.d.*)
 .data          0x0000000000036020        0x0 /usr/lib/gcc/i686-linux-gnu/5/../../../i386-linux-gnu/crti.o
 .data          0x0000000000036020        0x0 /usr/lib/gcc/i686-linux-gnu/5/crtbeginS.o
 .data.rel.local
                0x0000000000036020        0x4 /usr/lib/gcc/i686-linux-gnu/5/crtbeginS.o
                0x0000000000036020                __dso_handle
 .data          0x0000000000036024       0x14 oxygen_actuator.o
                0x0000000000036028                oxygen_actuator
 *fill*         0x0000000000036038        0x8 
 .data          0x0000000000036040       0x44 build/cooja/mtype63.o
                0x0000000000036040                simInterfaces
                0x0000000000036074                sensors
 .data          0x0000000000036084        0x0 build/cooja/mtype63.a(simEnvChange.o)
 .data          0x0000000000036084        0x0 build/cooja/mtype63.a(cooja_mt.o)
 .data          0x0000000000036084        0x0 build/cooja/mtype63.a(cooja_mtarch.o)
 .data          0x0000000000036084        0x0 build/cooja/mtype63.a(rtimer-arch.o)
 .data          0x0000000000036084        0x0 build/cooja/mtype63.a(beep.o)
 .data          0x0000000000036084        0x0 build/cooja/mtype63.a(leds-arch.o)
 .data          0x0000000000036084        0x0 build/cooja/mtype63.a(moteid.o)
 .data          0x0000000000036084        0x0 build/cooja/mtype63.a(pir-sensor.o)
 .data          0x0000000000036084        0x0 build/cooja/mtype63.a(rs232.o)
 .data          0x0000000000036084        0x0 build/cooja/mtype63.a(vib-sensor.o)
 .data          0x0000000000036084        0x0 build/cooja/mtype63.a(clock.o)
 .data          0x0000000000036084        0x0 build/cooja/mtype63.a(cooja-log.o)
 .data          0x0000000000036084        0x0 build/cooja/mtype63.a(cfs-cooja.o)
 .data          0x0000000000036084       0x2c build/cooja/mtype63.a(cooja-radio.o)
                0x0000000000036084                simRadioHWOn
                0x0000000000036088                simSignalStrength
                0x000000000003608c                simLastSignalStrength
                0x0000000000036090                simPower
                0x0000000000036094                simRadioChannel
                0x0000000000036098                simLQI
                0x00000000000360a0                cooja_radio_process
 .data          0x00000000000360b0        0x0 build/cooja/mtype63.a(eeprom.o)
 .data          0x00000000000360b0        0x0 build/cooja/mtype63.a(random.o)
 .data          0x00000000000360b0       0x10 build/cooja/mtype63.a(sensors.o)
                0x00000000000360b0                sensors_process
 .data          0x00000000000360c0        0x0 build/cooja/mtype63.a(leds.o)
 .data          0x00000000000360c0        0x0 build/cooja/mtype63.a(gpio-hal-arch.o)
 .data          0x00000000000360c0       0x78 build/cooja/mtype63.a(buttons.o)
                0x00000000000360c0                simButtonIsActive
                0x0000000000036130                button_hal_buttons
 *fill*         0x0000000000036138        0x8 
 .data          0x0000000000036140       0x44 build/cooja/mtype63.a(oxygen_generato)
                0x0000000000036140                GOOD_OXYGEN_LEVEL
                0x0000000000036160                oxygen_generator
 .data          0x0000000000036184       0x10 build/cooja/mtype63.a(coap-observe-cl)
 .data          0x0000000000036194        0x0 build/cooja/mtype63.a(coap-blocking-a)
 .data          0x0000000000036194        0x8 build/cooja/mtype63.a(coap-engine.o)
 *fill*         0x000000000003619c        0x4 
 .data          0x00000000000361a0       0x24 build/cooja/mtype63.a(coap-res-well-k)
                0x00000000000361a0                res_well_known_core
 .data          0x00000000000361c4       0x10 build/cooja/mtype63.a(coap-observe.o)
 .data          0x00000000000361d4       0x10 build/cooja/mtype63.a(coap-uip.o)
                0x00000000000361d4                coap_engine
 .data          0x00000000000361e4        0x4 build/cooja/mtype63.a(coap-timer.o)
 .data          0x00000000000361e8       0x10 build/cooja/mtype63.a(coap-transactio)
 .data          0x00000000000361f8        0x4 build/cooja/mtype63.a(coap.o)
                0x00000000000361f8                coap_error_message
 .data          0x00000000000361fc        0x0 build/cooja/mtype63.a(contiki-main.o)
 .data          0x00000000000361fc        0x0 build/cooja/mtype63.a(autostart.o)
 .data          0x00000000000361fc       0x14 build/cooja/mtype63.a(ctimer.o)
                0x0000000000036200                ctimer_process
 *fill*         0x0000000000036210       0x10 
 .data          0x0000000000036220       0xbc build/cooja/mtype63.a(log.o)
                0x0000000000036220                curr_log_level_main
                0x0000000000036240                all_modules
 .data          0x00000000000362dc        0x0 build/cooja/mtype63.a(energest.o)
 .data          0x00000000000362dc       0x10 build/cooja/mtype63.a(etimer.o)
                0x00000000000362dc                etimer_process
 .data          0x00000000000362ec        0x0 build/cooja/mtype63.a(node-id.o)
 .data          0x00000000000362ec        0x0 build/cooja/mtype63.a(rtimer.o)
 .data          0x00000000000362ec        0x0 build/cooja/mtype63.a(process.o)
 .data          0x00000000000362ec        0x0 build/cooja/mtype63.a(timer.o)
 .data          0x00000000000362ec        0x0 build/cooja/mtype63.a(list.o)
 .data          0x00000000000362ec        0x0 build/cooja/mtype63.a(memb.o)
 .data          0x00000000000362ec       0x10 build/cooja/mtype63.a(button-hal.o)
                0x00000000000362ec                button_hal_process
 .data          0x00000000000362fc       0x10 build/cooja/mtype63.a(serial-line.o)
                0x00000000000362fc                serial_line_process
 .data          0x000000000003630c        0x4 build/cooja/mtype63.a(gpio-hal.o)
 .data          0x0000000000036310       0x18 build/cooja/mtype63.a(queuebuf.o)
 .data          0x0000000000036328        0x4 build/cooja/mtype63.a(packetbuf.o)
 .data          0x000000000003632c        0x4 build/cooja/mtype63.a(netstack.o)
 .data          0x0000000000036330        0x0 build/cooja/mtype63.a(linkaddr.o)
 .data          0x0000000000036330        0x0 build/cooja/mtype63.a(csma.o)
 .data          0x0000000000036330       0x28 build/cooja/mtype63.a(csma-output.o)
 .data          0x0000000000036358        0x0 build/cooja/mtype63.a(uip-ds6.o)
 .data          0x0000000000036358        0x0 build/cooja/mtype63.a(uip-udp-packet.)
 .data          0x0000000000036358       0x10 build/cooja/mtype63.a(uip-ds6-route.o)
 .data          0x0000000000036368       0x10 build/cooja/mtype63.a(tcpip.o)
                0x0000000000036368                tcpip_process
 .data          0x0000000000036378        0x0 build/cooja/mtype63.a(uip6.o)
 .data          0x0000000000036378       0x14 build/cooja/mtype63.a(uip-ds6-nbr.o)
 .data          0x000000000003638c        0xc build/cooja/mtype63.a(uip-nd6.o)
 .data          0x0000000000036398        0x0 build/cooja/mtype63.a(sicslowpan.o)
 .data          0x0000000000036398        0x0 build/cooja/mtype63.a(uiplib.o)
 .data          0x0000000000036398        0x0 build/cooja/mtype63.a(rpl.o)
 .data          0x0000000000036398       0x30 build/cooja/mtype63.a(rpl-icmp6.o)
 .data          0x00000000000363c8        0x0 build/cooja/mtype63.a(rpl-dag-root.o)
 .data          0x00000000000363c8        0x0 build/cooja/mtype63.a(watchdog.o)
 .data          0x00000000000363c8        0x0 build/cooja/mtype63.a(int-master.o)
 .data          0x00000000000363c8       0x10 build/cooja/mtype63.a(coap-timer-defa)
                0x00000000000363c8                coap_timer_process
 .data          0x00000000000363d8        0x0 build/cooja/mtype63.a(stimer.o)
 .data          0x00000000000363d8        0x0 build/cooja/mtype63.a(ringbuf.o)
 .data          0x00000000000363d8        0x0 build/cooja/mtype63.a(assert.o)
 .data          0x00000000000363d8       0x10 build/cooja/mtype63.a(nbr-table.o)
 .data          0x00000000000363e8       0x14 build/cooja/mtype63.a(link-stats.o)
 .data          0x00000000000363fc        0x0 build/cooja/mtype63.a(mac-sequence.o)
 .data          0x00000000000363fc        0x0 build/cooja/mtype63.a(mac.o)
 .data          0x00000000000363fc        0x0 build/cooja/mtype63.a(framer-802154.o)
 .data          0x00000000000363fc        0x2 build/cooja/mtype63.a(frame802154.o)
 .data          0x00000000000363fe        0x0 build/cooja/mtype63.a(csma-security.o)
 .data          0x00000000000363fe        0x0 build/cooja/mtype63.a(uipbuf.o)
 *fill*         0x00000000000363fe        0x2 
 .data          0x0000000000036400       0x20 build/cooja/mtype63.a(uip-icmp6.o)
 .data          0x0000000000036420       0x10 build/cooja/mtype63.a(uip-sr.o)
 .data          0x0000000000036430        0xc build/cooja/mtype63.a(uip-packetqueue)
 .data          0x000000000003643c        0x0 build/cooja/mtype63.a(rpl-nbr-policy.)
 .data          0x000000000003643c       0x14 build/cooja/mtype63.a(rpl-neighbor.o)
                0x000000000003644c                rpl_neighbors
 .data          0x0000000000036450        0x0 build/cooja/mtype63.a(rpl-dag.o)
 .data          0x0000000000036450        0x0 build/cooja/mtype63.a(rpl-timers.o)
 .data          0x0000000000036450        0x0 build/cooja/mtype63.a(rpl-ext-header.)
 *fill*         0x0000000000036450       0x10 
 .data          0x0000000000036460       0x24 build/cooja/mtype63.a(rpl-mrhof.o)
                0x0000000000036460                rpl_mrhof
 .data          0x0000000000036484        0x0 /usr/lib/gcc/i686-linux-gnu/5/libgcc.a(_udivdi3.o)
 .data          0x0000000000036484        0x0 /usr/lib/gcc/i686-linux-gnu/5/crtendS.o
 .data          0x0000000000036484        0x0 /usr/lib/gcc/i686-linux-gnu/5/../../../i386-linux-gnu/crtn.o

.tm_clone_table
                0x0000000000036484        0x0
 .tm_clone_table
                0x0000000000036484        0x0 /usr/lib/gcc/i686-linux-gnu/5/crtbeginS.o
 .tm_clone_table
                0x0000000000036484        0x0 /usr/lib/gcc/i686-linux-gnu/5/crtendS.o

.data1
 *(.data1)
                0x0000000000036484                _edata = .
                [!provide]                        PROVIDE (edata, .)
                0x0000000000036484                . = .
                0x0000000000036484                __bss_start = .

.bss            0x00000000000364a0    0x141a4
 *(.dynbss)
 .dynbss        0x00000000000364a0        0x0 /usr/lib/gcc/i686-linux-gnu/5/../../../i386-linux-gnu/crti.o
 *(.bss .bss.* .gnu.linkonce.b.*)
 .bss           0x00000000000364a0        0x0 /usr/lib/gcc/i686-linux-gnu/5/../../../i386-linux-gnu/crti.o
 .bss           0x00000000000364a0        0x1 /usr/lib/gcc/i686-linux-gnu/5/crtbeginS.o
 *fill*         0x00000000000364a1       0x1f 
 .bss           0x00000000000364c0      0x18c oxygen_actuator.o
                0x00000000000364c0                oxygen_level
 *fill*         0x000000000003664c       0x14 
 .bss           0x0000000000036660     0x2030 build/cooja/mtype63.o
 .bss           0x0000000000038690        0x1 build/cooja/mtype63.a(simEnvChange.o)
                0x0000000000038690                simDontFallAsleep
 *fill*         0x0000000000038691        0x3 
 .bss           0x0000000000038694        0x4 build/cooja/mtype63.a(cooja_mt.o)
 .bss           0x0000000000038698        0x4 build/cooja/mtype63.a(cooja_mtarch.o)
 .bss           0x000000000003869c        0x0 build/cooja/mtype63.a(rtimer-arch.o)
 .bss           0x000000000003869c        0x0 build/cooja/mtype63.a(beep.o)
 .bss           0x000000000003869c        0x1 build/cooja/mtype63.a(leds-arch.o)
                0x000000000003869c                simLedsValue
 .bss           0x000000000003869d        0x0 build/cooja/mtype63.a(moteid.o)
 .bss           0x000000000003869d        0x1 build/cooja/mtype63.a(pir-sensor.o)
                0x000000000003869d                simPirValue
 *fill*         0x000000000003869e        0x2 
 .bss           0x00000000000386a0        0x4 build/cooja/mtype63.a(rs232.o)
 .bss           0x00000000000386a4        0x1 build/cooja/mtype63.a(vib-sensor.o)
                0x00000000000386a4                simVibValue
 .bss           0x00000000000386a5        0x0 build/cooja/mtype63.a(clock.o)
 *fill*         0x00000000000386a5       0x1b 
 .bss           0x00000000000386c0     0x2020 build/cooja/mtype63.a(cooja-log.o)
 .bss           0x000000000003a6e0      0xfc0 build/cooja/mtype63.a(cfs-cooja.o)
                0x000000000003a6e0                simCFSData
                0x000000000003b680                simCFSSize
                0x000000000003b684                simCFSChanged
                0x000000000003b688                simCFSRead
                0x000000000003b68c                simCFSWritten
 .bss           0x000000000003b6a0       0x24 build/cooja/mtype63.a(cooja-radio.o)
                0x000000000003b6a0                simReceiving
                0x000000000003b6a4                simInSize
                0x000000000003b6a8                simLastPacketTimestamp
                0x000000000003b6b0                simOutSize
 .bss           0x000000000003b6c4        0xc build/cooja/mtype63.a(eeprom.o)
                0x000000000003b6c4                simEEPROMChanged
                0x000000000003b6c8                simEEPROMRead
                0x000000000003b6cc                simEEPROMWritten
 .bss           0x000000000003b6d0        0x0 build/cooja/mtype63.a(random.o)
 .bss           0x000000000003b6d0        0xc build/cooja/mtype63.a(sensors.o)
 .bss           0x000000000003b6dc        0x0 build/cooja/mtype63.a(leds.o)
 .bss           0x000000000003b6dc       0x24 build/cooja/mtype63.a(gpio-hal-arch.o)
 .bss           0x000000000003b700        0x0 build/cooja/mtype63.a(buttons.o)
 .bss           0x000000000003b700       0x10 build/cooja/mtype63.a(oxygen_generato)
                0x000000000003b700                alert_level
                0x000000000003b704                status
                0x000000000003b708                manualMode
 *fill*         0x000000000003b710       0x10 
 .bss           0x000000000003b720      0x1b1 build/cooja/mtype63.a(coap-observe-cl)
 .bss           0x000000000003b8d1        0x0 build/cooja/mtype63.a(coap-blocking-a)
 *fill*         0x000000000003b8d1        0xf 
 .bss           0x000000000003b8e0      0x190 build/cooja/mtype63.a(coap-engine.o)
 .bss           0x000000000003ba70        0x0 build/cooja/mtype63.a(coap-res-well-k)
 *fill*         0x000000000003ba70       0x10 
 .bss           0x000000000003ba80      0x120 build/cooja/mtype63.a(coap-observe.o)
 .bss           0x000000000003bba0       0x18 build/cooja/mtype63.a(coap-uip.o)
 .bss           0x000000000003bbb8        0x5 build/cooja/mtype63.a(coap-timer.o)
 *fill*         0x000000000003bbbd        0x3 
 .bss           0x000000000003bbc0      0x334 build/cooja/mtype63.a(coap-transactio)
 .bss           0x000000000003bef4        0x6 build/cooja/mtype63.a(coap.o)
                0x000000000003bef4                coap_status_code
 .bss           0x000000000003befa        0x0 build/cooja/mtype63.a(contiki-main.o)
 .bss           0x000000000003befa        0x0 build/cooja/mtype63.a(autostart.o)
 *fill*         0x000000000003befa        0x2 
 .bss           0x000000000003befc        0x5 build/cooja/mtype63.a(ctimer.o)
 *fill*         0x000000000003bf01        0x3 
 .bss           0x000000000003bf04       0x2c build/cooja/mtype63.a(log.o)
                0x000000000003bf04                curr_log_level_rpl
                0x000000000003bf08                curr_log_level_tcpip
                0x000000000003bf0c                curr_log_level_ipv6
                0x000000000003bf10                curr_log_level_6lowpan
                0x000000000003bf14                curr_log_level_nullnet
                0x000000000003bf18                curr_log_level_mac
                0x000000000003bf1c                curr_log_level_framer
                0x000000000003bf20                curr_log_level_6top
                0x000000000003bf24                curr_log_level_coap
                0x000000000003bf28                curr_log_level_snmp
                0x000000000003bf2c                curr_log_level_lwm2m
 .bss           0x000000000003bf30        0x0 build/cooja/mtype63.a(energest.o)
 .bss           0x000000000003bf30        0x8 build/cooja/mtype63.a(etimer.o)
 .bss           0x000000000003bf38        0x2 build/cooja/mtype63.a(node-id.o)
                0x000000000003bf38                node_id
 *fill*         0x000000000003bf3a        0x2 
 .bss           0x000000000003bf3c        0x4 build/cooja/mtype63.a(rtimer.o)
 .bss           0x000000000003bf40      0x1a1 build/cooja/mtype63.a(process.o)
                0x000000000003bf40                process_list
                0x000000000003bf44                process_current
 .bss           0x000000000003c0e1        0x0 build/cooja/mtype63.a(timer.o)
 .bss           0x000000000003c0e1        0x0 build/cooja/mtype63.a(list.o)
 .bss           0x000000000003c0e1        0x0 build/cooja/mtype63.a(memb.o)
 *fill*         0x000000000003c0e1        0x3 
 .bss           0x000000000003c0e4       0x10 build/cooja/mtype63.a(button-hal.o)
 *fill*         0x000000000003c0f4        0xc 
 .bss           0x000000000003c100      0x140 build/cooja/mtype63.a(serial-line.o)
 .bss           0x000000000003c240        0x4 build/cooja/mtype63.a(gpio-hal.o)
 *fill*         0x000000000003c244       0x1c 
 .bss           0x000000000003c260     0x2c80 build/cooja/mtype63.a(queuebuf.o)
 .bss           0x000000000003eee0       0xa0 build/cooja/mtype63.a(packetbuf.o)
 .bss           0x000000000003ef80        0x4 build/cooja/mtype63.a(netstack.o)
 .bss           0x000000000003ef84        0x0 build/cooja/mtype63.a(linkaddr.o)
 .bss           0x000000000003ef84        0x0 build/cooja/mtype63.a(csma.o)
 *fill*         0x000000000003ef84       0x1c 
 .bss           0x000000000003efa0      0x726 build/cooja/mtype63.a(csma-output.o)
 *fill*         0x000000000003f6c6        0x2 
 .bss           0x000000000003f6c8       0x30 build/cooja/mtype63.a(uip-ds6.o)
 .bss           0x000000000003f6f8        0x0 build/cooja/mtype63.a(uip-udp-packet.)
 *fill*         0x000000000003f6f8        0x8 
 .bss           0x000000000003f700       0x60 build/cooja/mtype63.a(uip-ds6-route.o)
 .bss           0x000000000003f760       0x10 build/cooja/mtype63.a(tcpip.o)
 .bss           0x000000000003f770        0x8 build/cooja/mtype63.a(uip6.o)
                0x000000000003f770                uip_ext_bitmap
                0x000000000003f772                uip_ext_len
                0x000000000003f774                uip_last_proto
 *fill*         0x000000000003f778        0x8 
 .bss           0x000000000003f780     0x1c20 build/cooja/mtype63.a(uip-ds6-nbr.o)
 .bss           0x00000000000413a0       0x10 build/cooja/mtype63.a(uip-nd6.o)
 *fill*         0x00000000000413b0       0x10 
 .bss           0x00000000000413c0      0x724 build/cooja/mtype63.a(sicslowpan.o)
 .bss           0x0000000000041ae4        0x0 build/cooja/mtype63.a(uiplib.o)
 .bss           0x0000000000041ae4        0x1 build/cooja/mtype63.a(rpl.o)
 .bss           0x0000000000041ae5        0x0 build/cooja/mtype63.a(rpl-icmp6.o)
 *fill*         0x0000000000041ae5        0x3 
 .bss           0x0000000000041ae8       0x11 build/cooja/mtype63.a(rpl-dag-root.o)
 .bss           0x0000000000041af9        0x0 build/cooja/mtype63.a(watchdog.o)
 *fill*         0x0000000000041af9        0x3 
 .bss           0x0000000000041afc        0x4 build/cooja/mtype63.a(int-master.o)
 .bss           0x0000000000041b00       0x1c build/cooja/mtype63.a(coap-timer-defa)
 .bss           0x0000000000041b1c        0x0 build/cooja/mtype63.a(stimer.o)
 .bss           0x0000000000041b1c        0x0 build/cooja/mtype63.a(ringbuf.o)
 .bss           0x0000000000041b1c        0x0 build/cooja/mtype63.a(assert.o)
 *fill*         0x0000000000041b1c        0x4 
 .bss           0x0000000000041b20     0x1214 build/cooja/mtype63.a(nbr-table.o)
 *fill*         0x0000000000042d34        0xc 
 .bss           0x0000000000042d40      0xe10 build/cooja/mtype63.a(link-stats.o)
 *fill*         0x0000000000043b50       0x10 
 .bss           0x0000000000043b60      0x100 build/cooja/mtype63.a(mac-sequence.o)
 .bss           0x0000000000043c60        0x0 build/cooja/mtype63.a(mac.o)
 .bss           0x0000000000043c60        0x2 build/cooja/mtype63.a(framer-802154.o)
 .bss           0x0000000000043c62        0x0 build/cooja/mtype63.a(frame802154.o)
 .bss           0x0000000000043c62        0x0 build/cooja/mtype63.a(csma-security.o)
 *fill*         0x0000000000043c62        0x2 
 .bss           0x0000000000043c64       0x18 build/cooja/mtype63.a(uipbuf.o)
 .bss           0x0000000000043c7c       0x18 build/cooja/mtype63.a(uip-icmp6.o)
 *fill*         0x0000000000043c94        0xc 
 .bss           0x0000000000043ca0     0x1d80 build/cooja/mtype63.a(uip-sr.o)
 .bss           0x0000000000045a20      0xa78 build/cooja/mtype63.a(uip-packetqueue)
 .bss           0x0000000000046498        0xe build/cooja/mtype63.a(rpl-nbr-policy.)
 *fill*         0x00000000000464a6       0x1a 
 .bss           0x00000000000464c0      0x960 build/cooja/mtype63.a(rpl-neighbor.o)
 .bss           0x0000000000046e20        0x0 build/cooja/mtype63.a(rpl-dag.o)
 .bss           0x0000000000046e20       0x40 build/cooja/mtype63.a(rpl-timers.o)
 .bss           0x0000000000046e60        0x0 build/cooja/mtype63.a(rpl-ext-header.)
 .bss           0x0000000000046e60        0x0 build/cooja/mtype63.a(rpl-mrhof.o)
 .bss           0x0000000000046e60        0x0 /usr/lib/gcc/i686-linux-gnu/5/libgcc.a(_udivdi3.o)
 .bss           0x0000000000046e60        0x0 /usr/lib/gcc/i686-linux-gnu/5/crtendS.o
 .bss           0x0000000000046e60        0x0 /usr/lib/gcc/i686-linux-gnu/5/../../../i386-linux-gnu/crtn.o
 *(COMMON)
 COMMON         0x0000000000046e60        0x8 build/cooja/mtype63.o
                0x0000000000046e60                referenceVar
                0x0000000000046e64                sensors_flags
 COMMON         0x0000000000046e68        0xc build/cooja/mtype63.a(simEnvChange.o)
                0x0000000000046e68                simEtimerPending
                0x0000000000046e6c                simProcessRunValue
                0x0000000000046e70                simEtimerNextExpirationTime
 *fill*         0x0000000000046e74        0x4 
 COMMON         0x0000000000046e78       0x18 build/cooja/mtype63.a(rtimer-arch.o)
                0x0000000000046e78                simRtimerPending
                0x0000000000046e80                simRtimerCurrentTicks
                0x0000000000046e88                simRtimerNextExpirationTime
 COMMON         0x0000000000046e90        0x1 build/cooja/mtype63.a(beep.o)
                0x0000000000046e90                simBeeped
 *fill*         0x0000000000046e91        0x3 
 COMMON         0x0000000000046e94        0xc build/cooja/mtype63.a(moteid.o)
                0x0000000000046e94                simRandomSeed
                0x0000000000046e98                simMoteIDChanged
                0x0000000000046e9c                simMoteID
 COMMON         0x0000000000046ea0        0x2 build/cooja/mtype63.a(pir-sensor.o)
                0x0000000000046ea0                simPirIsActive
                0x0000000000046ea1                simPirChanged
 *fill*         0x0000000000046ea2       0x1e 
 COMMON         0x0000000000046ec0      0x820 build/cooja/mtype63.a(rs232.o)
                0x0000000000046ec0                simSerialReceivingFlag
                0x0000000000046ec4                simSerialReceivingLength
                0x0000000000046ee0                simSerialReceivingData
 COMMON         0x00000000000476e0        0x2 build/cooja/mtype63.a(vib-sensor.o)
                0x00000000000476e0                simVibChanged
                0x00000000000476e1                simVibIsActive
 *fill*         0x00000000000476e2        0x2 
 COMMON         0x00000000000476e4        0x4 build/cooja/mtype63.a(clock.o)
                0x00000000000476e4                simCurrentTime
 *fill*         0x00000000000476e8       0x18 
 COMMON         0x0000000000047700     0x2020 build/cooja/mtype63.a(cooja-log.o)
                0x0000000000047700                simLoggedLength
                0x0000000000047704                simLoggedFlag
                0x0000000000047720                simLoggedData
 COMMON         0x0000000000049720       0xfd build/cooja/mtype63.a(cooja-radio.o)
                0x0000000000049720                simOutDataBuffer
                0x00000000000497a0                simInDataBuffer
 *fill*         0x000000000004981d        0x3 
 COMMON         0x0000000000049820      0x400 build/cooja/mtype63.a(eeprom.o)
                0x0000000000049820                simEEPROMData
 COMMON         0x0000000000049c20        0x1 build/cooja/mtype63.a(sensors.o)
                0x0000000000049c20                sensors_event
 COMMON         0x0000000000049c21        0x2 build/cooja/mtype63.a(buttons.o)
                0x0000000000049c21                simButtonIsDown
                0x0000000000049c22                simButtonChanged
 *fill*         0x0000000000049c23        0x1 
 COMMON         0x0000000000049c24       0x60 build/cooja/mtype63.a(contiki-main.o)
                0x0000000000049c24                eb_per_time_source
                0x0000000000049c3c                unicast_per_neighbor_rpl_storing
                0x0000000000049c54                unicast_per_neighbor_rpl_ns
                0x0000000000049c6c                default_common
 COMMON         0x0000000000049c84        0x3 build/cooja/mtype63.a(button-hal.o)
                0x0000000000049c84                button_hal_periodic_event
                0x0000000000049c85                button_hal_press_event
                0x0000000000049c86                button_hal_release_event
 COMMON         0x0000000000049c87        0x1 build/cooja/mtype63.a(serial-line.o)
                0x0000000000049c87                serial_line_event_message
 COMMON         0x0000000000049c88       0x2c build/cooja/mtype63.a(packetbuf.o)
                0x0000000000049c88                packetbuf_attrs
                0x0000000000049ca4                packetbuf_addrs
 COMMON         0x0000000000049cb4        0x8 build/cooja/mtype63.a(linkaddr.o)
                0x0000000000049cb4                linkaddr_node_addr
 *fill*         0x0000000000049cbc        0x4 
 COMMON         0x0000000000049cc0      0x181 build/cooja/mtype63.a(uip-ds6.o)
                0x0000000000049cc0                uip_ds6_prefix_list
                0x0000000000049d20                uip_ds6_timer_periodic
                0x0000000000049d30                uip_ds6_netif_addr_list_offset
                0x0000000000049d40                uip_ds6_if
                0x0000000000049e38                uip_ds6_timer_ra
                0x0000000000049e40                uip_ds6_addr_size
 COMMON         0x0000000000049e41        0x1 build/cooja/mtype63.a(tcpip.o)
                0x0000000000049e41                tcpip_event
 *fill*         0x0000000000049e42       0x1e 
 COMMON         0x0000000000049e60      0x648 build/cooja/mtype63.a(uip6.o)
                0x0000000000049e60                uip_slen
                0x0000000000049e64                uip_lladdr
                0x0000000000049e6c                uip_appdata
                0x0000000000049e70                uip_flags
                0x0000000000049e80                uip_aligned_buf
                0x000000000004a380                uip_len
                0x000000000004a384                uip_sappdata
                0x000000000004a3a0                uip_udp_conns
                0x000000000004a4a0                uip_udp_conn
                0x000000000004a4a4                uip_conn
 COMMON         0x000000000004a4a8       0x10 build/cooja/mtype63.a(rpl.o)
                0x000000000004a4a8                rpl_multicast_addr
 *fill*         0x000000000004a4b8        0x8 
 COMMON         0x000000000004a4c0       0x20 build/cooja/mtype63.a(link-stats.o)
                0x000000000004a4c0                periodic_timer
 COMMON         0x000000000004a4e0      0x164 build/cooja/mtype63.a(rpl-dag.o)
                0x000000000004a4e0                curr_instance
                0x000000000004a644                . = ALIGN ((. != 0x0)?0x4:0x1)
                0x000000000004a644                . = ALIGN (0x4)
                0x000000000004a644                . = SEGMENT_START ("ldata-segment", .)
                0x000000000004a644                . = ALIGN (0x4)
                0x000000000004a644                _end = .
                [!provide]                        PROVIDE (end, .)
                0x000000000004a644                . = DATA_SEGMENT_END (.)

.stab
 *(.stab)

.stabstr
 *(.stabstr)

.stab.excl
 *(.stab.excl)

.stab.exclstr
 *(.stab.exclstr)

.stab.index
 *(.stab.index)

.stab.indexstr
 *(.stab.indexstr)

.comment        0x0000000000000000       0x35
 *(.comment)
 .comment       0x0000000000000000       0x35 /usr/lib/gcc/i686-linux-gnu/5/crtbeginS.o
                                         0x36 (size before relaxing)
 .comment       0x0000000000000035       0x36 oxygen_actuator.o
 .comment       0x0000000000000035       0x36 build/cooja/mtype63.o
 .comment       0x0000000000000035       0x36 build/cooja/mtype63.a(simEnvChange.o)
 .comment       0x0000000000000035       0x36 build/cooja/mtype63.a(cooja_mt.o)
 .comment       0x0000000000000035       0x36 build/cooja/mtype63.a(cooja_mtarch.o)
 .comment       0x0000000000000035       0x36 build/cooja/mtype63.a(rtimer-arch.o)
 .comment       0x0000000000000035       0x36 build/cooja/mtype63.a(beep.o)
 .comment       0x0000000000000035       0x36 build/cooja/mtype63.a(leds-arch.o)
 .comment       0x0000000000000035       0x36 build/cooja/mtype63.a(moteid.o)
 .comment       0x0000000000000035       0x36 build/cooja/mtype63.a(pir-sensor.o)
 .comment       0x0000000000000035       0x36 build/cooja/mtype63.a(rs232.o)
 .comment       0x0000000000000035       0x36 build/cooja/mtype63.a(vib-sensor.o)
 .comment       0x0000000000000035       0x36 build/cooja/mtype63.a(clock.o)
 .comment       0x0000000000000035       0x36 build/cooja/mtype63.a(cooja-log.o)
 .comment       0x0000000000000035       0x36 build/cooja/mtype63.a(cfs-cooja.o)
 .comment       0x0000000000000035       0x36 build/cooja/mtype63.a(cooja-radio.o)
 .comment       0x0000000000000035       0x36 build/cooja/mtype63.a(eeprom.o)
 .comment       0x0000000000000035       0x36 build/cooja/mtype63.a(random.o)
 .comment       0x0000000000000035       0x36 build/cooja/mtype63.a(sensors.o)
 .comment       0x0000000000000035       0x36 build/cooja/mtype63.a(leds.o)
 .comment       0x0000000000000035       0x36 build/cooja/mtype63.a(gpio-hal-arch.o)
 .comment       0x0000000000000035       0x36 build/cooja/mtype63.a(buttons.o)
 .comment       0x0000000000000035       0x36 build/cooja/mtype63.a(oxygen_generato)
 .comment       0x0000000000000035       0x36 build/cooja/mtype63.a(coap-observe-cl)
 .comment       0x0000000000000035       0x36 build/cooja/mtype63.a(coap-blocking-a)
 .comment       0x0000000000000035       0x36 build/cooja/mtype63.a(coap-engine.o)
 .comment       0x0000000000000035       0x36 build/cooja/mtype63.a(coap-res-well-k)
 .comment       0x0000000000000035       0x36 build/cooja/mtype63.a(coap-observe.o)
 .comment       0x0000000000000035       0x36 build/cooja/mtype63.a(coap-uip.o)
 .comment       0x0000000000000035       0x36 build/cooja/mtype63.a(coap-timer.o)
 .comment       0x0000000000000035       0x36 build/cooja/mtype63.a(coap-transactio)
 .comment       0x0000000000000035       0x36 build/cooja/mtype63.a(coap.o)
 .comment       0x0000000000000035       0x36 build/cooja/mtype63.a(contiki-main.o)
 .comment       0x0000000000000035       0x36 build/cooja/mtype63.a(autostart.o)
 .comment       0x0000000000000035       0x36 build/cooja/mtype63.a(ctimer.o)
 .comment       0x0000000000000035       0x36 build/cooja/mtype63.a(log.o)
 .comment       0x0000000000000035       0x36 build/cooja/mtype63.a(energest.o)
 .comment       0x0000000000000035       0x36 build/cooja/mtype63.a(etimer.o)
 .comment       0x0000000000000035       0x36 build/cooja/mtype63.a(node-id.o)
 .comment       0x0000000000000035       0x36 build/cooja/mtype63.a(rtimer.o)
 .comment       0x0000000000000035       0x36 build/cooja/mtype63.a(process.o)
 .comment       0x0000000000000035       0x36 build/cooja/mtype63.a(timer.o)
 .comment       0x0000000000000035       0x36 build/cooja/mtype63.a(list.o)
 .comment       0x0000000000000035       0x36 build/cooja/mtype63.a(memb.o)
 .comment       0x0000000000000035       0x36 build/cooja/mtype63.a(button-hal.o)
 .comment       0x0000000000000035       0x36 build/cooja/mtype63.a(serial-line.o)
 .comment       0x0000000000000035       0x36 build/cooja/mtype63.a(gpio-hal.o)
 .comment       0x0000000000000035       0x36 build/cooja/mtype63.a(queuebuf.o)
 .comment       0x0000000000000035       0x36 build/cooja/mtype63.a(packetbuf.o)
 .comment       0x0000000000000035       0x36 build/cooja/mtype63.a(netstack.o)
 .comment       0x0000000000000035       0x36 build/cooja/mtype63.a(linkaddr.o)
 .comment       0x0000000000000035       0x36 build/cooja/mtype63.a(csma.o)
 .comment       0x0000000000000035       0x36 build/cooja/mtype63.a(csma-output.o)
 .comment       0x0000000000000035       0x36 build/cooja/mtype63.a(uip-ds6.o)
 .comment       0x0000000000000035       0x36 build/cooja/mtype63.a(uip-udp-packet.)
 .comment       0x0000000000000035       0x36 build/cooja/mtype63.a(uip-ds6-route.o)
 .comment       0x0000000000000035       0x36 build/cooja/mtype63.a(tcpip.o)
 .comment       0x0000000000000035       0x36 build/cooja/mtype63.a(uip6.o)
 .comment       0x0000000000000035       0x36 build/cooja/mtype63.a(uip-ds6-nbr.o)
 .comment       0x0000000000000035       0x36 build/cooja/mtype63.a(uip-nd6.o)
 .comment       0x0000000000000035       0x36 build/cooja/mtype63.a(sicslowpan.o)
 .comment       0x0000000000000035       0x36 build/cooja/mtype63.a(uiplib.o)
 .comment       0x0000000000000035       0x36 build/cooja/mtype63.a(rpl.o)
 .comment       0x0000000000000035       0x36 build/cooja/mtype63.a(rpl-icmp6.o)
 .comment       0x0000000000000035       0x36 build/cooja/mtype63.a(rpl-dag-root.o)
 .comment       0x0000000000000035       0x36 build/cooja/mtype63.a(watchdog.o)
 .comment       0x0000000000000035       0x36 build/cooja/mtype63.a(int-master.o)
 .comment       0x0000000000000035       0x36 build/cooja/mtype63.a(coap-timer-defa)
 .comment       0x0000000000000035       0x36 build/cooja/mtype63.a(stimer.o)
 .comment       0x0000000000000035       0x36 build/cooja/mtype63.a(ringbuf.o)
 .comment       0x0000000000000035       0x36 build/cooja/mtype63.a(assert.o)
 .comment       0x0000000000000035       0x36 build/cooja/mtype63.a(nbr-table.o)
 .comment       0x0000000000000035       0x36 build/cooja/mtype63.a(link-stats.o)
 .comment       0x0000000000000035       0x36 build/cooja/mtype63.a(mac-sequence.o)
 .comment       0x0000000000000035       0x36 build/cooja/mtype63.a(mac.o)
 .comment       0x0000000000000035       0x36 build/cooja/mtype63.a(framer-802154.o)
 .comment       0x0000000000000035       0x36 build/cooja/mtype63.a(frame802154.o)
 .comment       0x0000000000000035       0x36 build/cooja/mtype63.a(csma-security.o)
 .comment       0x0000000000000035       0x36 build/cooja/mtype63.a(uipbuf.o)
 .comment       0x0000000000000035       0x36 build/cooja/mtype63.a(uip-icmp6.o)
 .comment       0x0000000000000035       0x36 build/cooja/mtype63.a(uip-sr.o)
 .comment       0x0000000000000035       0x36 build/cooja/mtype63.a(uip-packetqueue)
 .comment       0x0000000000000035       0x36 build/cooja/mtype63.a(rpl-nbr-policy.)
 .comment       0x0000000000000035       0x36 build/cooja/mtype63.a(rpl-neighbor.o)
 .comment       0x0000000000000035       0x36 build/cooja/mtype63.a(rpl-dag.o)
 .comment       0x0000000000000035       0x36 build/cooja/mtype63.a(rpl-timers.o)
 .comment       0x0000000000000035       0x36 build/cooja/mtype63.a(rpl-ext-header.)
 .comment       0x0000000000000035       0x36 build/cooja/mtype63.a(rpl-mrhof.o)
 .comment       0x0000000000000035       0x36 /usr/lib/gcc/i686-linux-gnu/5/crtendS.o

.debug
 *(.debug)

.line
 *(.line)

.debug_srcinfo
 *(.debug_srcinfo)

.debug_sfnames
 *(.debug_sfnames)

.debug_aranges  0x0000000000000000      0xb00
 *(.debug_aranges)
 .debug_aranges
                0x0000000000000000       0x20 oxygen_actuator.o
 .debug_aranges
                0x0000000000000020       0x20 build/cooja/mtype63.o
 .debug_aranges
                0x0000000000000040       0x20 build/cooja/mtype63.a(simEnvChange.o)
 .debug_aranges
                0x0000000000000060       0x20 build/cooja/mtype63.a(cooja_mt.o)
 .debug_aranges
                0x0000000000000080       0x20 build/cooja/mtype63.a(cooja_mtarch.o)
 .debug_aranges
                0x00000000000000a0       0x20 build/cooja/mtype63.a(rtimer-arch.o)
 .debug_aranges
                0x00000000000000c0       0x20 build/cooja/mtype63.a(beep.o)
 .debug_aranges
                0x00000000000000e0       0x20 build/cooja/mtype63.a(leds-arch.o)
 .debug_aranges
                0x0000000000000100       0x20 build/cooja/mtype63.a(moteid.o)
 .debug_aranges
                0x0000000000000120       0x20 build/cooja/mtype63.a(pir-sensor.o)
 .debug_aranges
                0x0000000000000140       0x20 build/cooja/mtype63.a(rs232.o)
 .debug_aranges
                0x0000000000000160       0x20 build/cooja/mtype63.a(vib-sensor.o)
 .debug_aranges
                0x0000000000000180       0x20 build/cooja/mtype63.a(clock.o)
 .debug_aranges
                0x00000000000001a0       0x20 build/cooja/mtype63.a(cooja-log.o)
 .debug_aranges
                0x00000000000001c0       0x20 build/cooja/mtype63.a(cfs-cooja.o)
 .debug_aranges
                0x00000000000001e0       0x20 build/cooja/mtype63.a(cooja-radio.o)
 .debug_aranges
                0x0000000000000200       0x20 build/cooja/mtype63.a(eeprom.o)
 .debug_aranges
                0x0000000000000220       0x20 build/cooja/mtype63.a(random.o)
 .debug_aranges
                0x0000000000000240       0x20 build/cooja/mtype63.a(sensors.o)
 .debug_aranges
                0x0000000000000260       0x20 build/cooja/mtype63.a(leds.o)
 .debug_aranges
                0x0000000000000280       0x20 build/cooja/mtype63.a(gpio-hal-arch.o)
 .debug_aranges
                0x00000000000002a0       0x20 build/cooja/mtype63.a(buttons.o)
 .debug_aranges
                0x00000000000002c0       0x20 build/cooja/mtype63.a(oxygen_generato)
 .debug_aranges
                0x00000000000002e0       0x20 build/cooja/mtype63.a(coap-observe-cl)
 .debug_aranges
                0x0000000000000300       0x20 build/cooja/mtype63.a(coap-blocking-a)
 .debug_aranges
                0x0000000000000320       0x20 build/cooja/mtype63.a(coap-engine.o)
 .debug_aranges
                0x0000000000000340       0x20 build/cooja/mtype63.a(coap-res-well-k)
 .debug_aranges
                0x0000000000000360       0x20 build/cooja/mtype63.a(coap-observe.o)
 .debug_aranges
                0x0000000000000380       0x20 build/cooja/mtype63.a(coap-uip.o)
 .debug_aranges
                0x00000000000003a0       0x20 build/cooja/mtype63.a(coap-timer.o)
 .debug_aranges
                0x00000000000003c0       0x20 build/cooja/mtype63.a(coap-transactio)
 .debug_aranges
                0x00000000000003e0       0x20 build/cooja/mtype63.a(coap.o)
 .debug_aranges
                0x0000000000000400       0x20 build/cooja/mtype63.a(contiki-main.o)
 .debug_aranges
                0x0000000000000420       0x20 build/cooja/mtype63.a(autostart.o)
 .debug_aranges
                0x0000000000000440       0x20 build/cooja/mtype63.a(ctimer.o)
 .debug_aranges
                0x0000000000000460       0x20 build/cooja/mtype63.a(log.o)
 .debug_aranges
                0x0000000000000480       0x20 build/cooja/mtype63.a(energest.o)
 .debug_aranges
                0x00000000000004a0       0x20 build/cooja/mtype63.a(etimer.o)
 .debug_aranges
                0x00000000000004c0       0x20 build/cooja/mtype63.a(node-id.o)
 .debug_aranges
                0x00000000000004e0       0x20 build/cooja/mtype63.a(rtimer.o)
 .debug_aranges
                0x0000000000000500       0x20 build/cooja/mtype63.a(process.o)
 .debug_aranges
                0x0000000000000520       0x20 build/cooja/mtype63.a(timer.o)
 .debug_aranges
                0x0000000000000540       0x20 build/cooja/mtype63.a(list.o)
 .debug_aranges
                0x0000000000000560       0x20 build/cooja/mtype63.a(memb.o)
 .debug_aranges
                0x0000000000000580       0x20 build/cooja/mtype63.a(button-hal.o)
 .debug_aranges
                0x00000000000005a0       0x20 build/cooja/mtype63.a(serial-line.o)
 .debug_aranges
                0x00000000000005c0       0x20 build/cooja/mtype63.a(gpio-hal.o)
 .debug_aranges
                0x00000000000005e0       0x20 build/cooja/mtype63.a(queuebuf.o)
 .debug_aranges
                0x0000000000000600       0x20 build/cooja/mtype63.a(packetbuf.o)
 .debug_aranges
                0x0000000000000620       0x20 build/cooja/mtype63.a(netstack.o)
 .debug_aranges
                0x0000000000000640       0x20 build/cooja/mtype63.a(linkaddr.o)
 .debug_aranges
                0x0000000000000660       0x20 build/cooja/mtype63.a(csma.o)
 .debug_aranges
                0x0000000000000680       0x20 build/cooja/mtype63.a(csma-output.o)
 .debug_aranges
                0x00000000000006a0       0x20 build/cooja/mtype63.a(uip-ds6.o)
 .debug_aranges
                0x00000000000006c0       0x20 build/cooja/mtype63.a(uip-udp-packet.)
 .debug_aranges
                0x00000000000006e0       0x20 build/cooja/mtype63.a(uip-ds6-route.o)
 .debug_aranges
                0x0000000000000700       0x20 build/cooja/mtype63.a(tcpip.o)
 .debug_aranges
                0x0000000000000720       0x20 build/cooja/mtype63.a(uip6.o)
 .debug_aranges
                0x0000000000000740       0x20 build/cooja/mtype63.a(uip-ds6-nbr.o)
 .debug_aranges
                0x0000000000000760       0x20 build/cooja/mtype63.a(uip-nd6.o)
 .debug_aranges
                0x0000000000000780       0x20 build/cooja/mtype63.a(sicslowpan.o)
 .debug_aranges
                0x00000000000007a0       0x20 build/cooja/mtype63.a(uiplib.o)
 .debug_aranges
                0x00000000000007c0       0x20 build/cooja/mtype63.a(rpl.o)
 .debug_aranges
                0x00000000000007e0       0x20 build/cooja/mtype63.a(rpl-icmp6.o)
 .debug_aranges
                0x0000000000000800       0x20 build/cooja/mtype63.a(rpl-dag-root.o)
 .debug_aranges
                0x0000000000000820       0x20 build/cooja/mtype63.a(watchdog.o)
 .debug_aranges
                0x0000000000000840       0x20 build/cooja/mtype63.a(int-master.o)
 .debug_aranges
                0x0000000000000860       0x20 build/cooja/mtype63.a(coap-timer-defa)
 .debug_aranges
                0x0000000000000880       0x20 build/cooja/mtype63.a(stimer.o)
 .debug_aranges
                0x00000000000008a0       0x20 build/cooja/mtype63.a(ringbuf.o)
 .debug_aranges
                0x00000000000008c0       0x20 build/cooja/mtype63.a(assert.o)
 .debug_aranges
                0x00000000000008e0       0x20 build/cooja/mtype63.a(nbr-table.o)
 .debug_aranges
                0x0000000000000900       0x20 build/cooja/mtype63.a(link-stats.o)
 .debug_aranges
                0x0000000000000920       0x20 build/cooja/mtype63.a(mac-sequence.o)
 .debug_aranges
                0x0000000000000940       0x20 build/cooja/mtype63.a(mac.o)
 .debug_aranges
                0x0000000000000960       0x20 build/cooja/mtype63.a(framer-802154.o)
 .debug_aranges
                0x0000000000000980       0x20 build/cooja/mtype63.a(frame802154.o)
 .debug_aranges
                0x00000000000009a0       0x20 build/cooja/mtype63.a(csma-security.o)
 .debug_aranges
                0x00000000000009c0       0x20 build/cooja/mtype63.a(uipbuf.o)
 .debug_aranges
                0x00000000000009e0       0x20 build/cooja/mtype63.a(uip-icmp6.o)
 .debug_aranges
                0x0000000000000a00       0x20 build/cooja/mtype63.a(uip-sr.o)
 .debug_aranges
                0x0000000000000a20       0x20 build/cooja/mtype63.a(uip-packetqueue)
 .debug_aranges
                0x0000000000000a40       0x20 build/cooja/mtype63.a(rpl-nbr-policy.)
 .debug_aranges
                0x0000000000000a60       0x20 build/cooja/mtype63.a(rpl-neighbor.o)
 .debug_aranges
                0x0000000000000a80       0x20 build/cooja/mtype63.a(rpl-dag.o)
 .debug_aranges
                0x0000000000000aa0       0x20 build/cooja/mtype63.a(rpl-timers.o)
 .debug_aranges
                0x0000000000000ac0       0x20 build/cooja/mtype63.a(rpl-ext-header.)
 .debug_aranges
                0x0000000000000ae0       0x20 build/cooja/mtype63.a(rpl-mrhof.o)

.debug_pubnames
 *(.debug_pubnames)

.debug_info     0x0000000000000000    0x279c3
 *(.debug_info .gnu.linkonce.wi.*)
 .debug_info    0x0000000000000000      0xe06 oxygen_actuator.o
 .debug_info    0x0000000000000e06     0x325a build/cooja/mtype63.o
 .debug_info    0x0000000000004060      0x15a build/cooja/mtype63.a(simEnvChange.o)
 .debug_info    0x00000000000041ba      0x1af build/cooja/mtype63.a(cooja_mt.o)
 .debug_info    0x0000000000004369      0x212 build/cooja/mtype63.a(cooja_mtarch.o)
 .debug_info    0x000000000000457b      0x181 build/cooja/mtype63.a(rtimer-arch.o)
 .debug_info    0x00000000000046fc      0x1fa build/cooja/mtype63.a(beep.o)
 .debug_info    0x00000000000048f6      0x194 build/cooja/mtype63.a(leds-arch.o)
 .debug_info    0x0000000000004a8a      0x111 build/cooja/mtype63.a(moteid.o)
 .debug_info    0x0000000000004b9b      0x21d build/cooja/mtype63.a(pir-sensor.o)
 .debug_info    0x0000000000004db8      0x21e build/cooja/mtype63.a(rs232.o)
 .debug_info    0x0000000000004fd6      0x21d build/cooja/mtype63.a(vib-sensor.o)
 .debug_info    0x00000000000051f3      0x159 build/cooja/mtype63.a(clock.o)
 .debug_info    0x000000000000534c      0x2bb build/cooja/mtype63.a(cooja-log.o)
 .debug_info    0x0000000000005607      0x3cf build/cooja/mtype63.a(cfs-cooja.o)
 .debug_info    0x00000000000059d6      0xb0a build/cooja/mtype63.a(cooja-radio.o)
 .debug_info    0x00000000000064e0      0x1d5 build/cooja/mtype63.a(eeprom.o)
 .debug_info    0x00000000000066b5       0xb3 build/cooja/mtype63.a(random.o)
 .debug_info    0x0000000000006768      0x36d build/cooja/mtype63.a(sensors.o)
 .debug_info    0x0000000000006ad5      0x28a build/cooja/mtype63.a(leds.o)
 .debug_info    0x0000000000006d5f      0x40e build/cooja/mtype63.a(gpio-hal-arch.o)
 .debug_info    0x000000000000716d      0x4bc build/cooja/mtype63.a(buttons.o)
 .debug_info    0x0000000000007629      0xa03 build/cooja/mtype63.a(oxygen_generato)
 .debug_info    0x000000000000802c      0xd40 build/cooja/mtype63.a(coap-observe-cl)
 .debug_info    0x0000000000008d6c      0x836 build/cooja/mtype63.a(coap-blocking-a)
 .debug_info    0x00000000000095a2      0xe93 build/cooja/mtype63.a(coap-engine.o)
 .debug_info    0x000000000000a435      0x8a4 build/cooja/mtype63.a(coap-res-well-k)
 .debug_info    0x000000000000acd9      0xdd0 build/cooja/mtype63.a(coap-observe.o)
 .debug_info    0x000000000000baa9      0xe48 build/cooja/mtype63.a(coap-uip.o)
 .debug_info    0x000000000000c8f1      0x2f1 build/cooja/mtype63.a(coap-timer.o)
 .debug_info    0x000000000000cbe2      0x862 build/cooja/mtype63.a(coap-transactio)
 .debug_info    0x000000000000d444     0x14c2 build/cooja/mtype63.a(coap.o)
 .debug_info    0x000000000000e906      0xf52 build/cooja/mtype63.a(contiki-main.o)
 .debug_info    0x000000000000f858      0x1ac build/cooja/mtype63.a(autostart.o)
 .debug_info    0x000000000000fa04      0x473 build/cooja/mtype63.a(ctimer.o)
 .debug_info    0x000000000000fe77      0x483 build/cooja/mtype63.a(log.o)
 .debug_info    0x00000000000102fa       0xbc build/cooja/mtype63.a(energest.o)
 .debug_info    0x00000000000103b6      0x49f build/cooja/mtype63.a(etimer.o)
 .debug_info    0x0000000000010855       0xfb build/cooja/mtype63.a(node-id.o)
 .debug_info    0x0000000000010950      0x1c1 build/cooja/mtype63.a(rtimer.o)
 .debug_info    0x0000000000010b11      0x4ab build/cooja/mtype63.a(process.o)
 .debug_info    0x0000000000010fbc      0x17a build/cooja/mtype63.a(timer.o)
 .debug_info    0x0000000000011136      0x38b build/cooja/mtype63.a(list.o)
 .debug_info    0x00000000000114c1      0x1e4 build/cooja/mtype63.a(memb.o)
 .debug_info    0x00000000000116a5      0x60c build/cooja/mtype63.a(button-hal.o)
 .debug_info    0x0000000000011cb1      0x2de build/cooja/mtype63.a(serial-line.o)
 .debug_info    0x0000000000011f8f      0x25d build/cooja/mtype63.a(gpio-hal.o)
 .debug_info    0x00000000000121ec      0x570 build/cooja/mtype63.a(queuebuf.o)
 .debug_info    0x000000000001275c      0x553 build/cooja/mtype63.a(packetbuf.o)
 .debug_info    0x0000000000012caf      0x56a build/cooja/mtype63.a(netstack.o)
 .debug_info    0x0000000000013219      0x18b build/cooja/mtype63.a(linkaddr.o)
 .debug_info    0x00000000000133a4      0x68e build/cooja/mtype63.a(csma.o)
 .debug_info    0x0000000000013a32      0xc80 build/cooja/mtype63.a(csma-output.o)
 .debug_info    0x00000000000146b2      0xae8 build/cooja/mtype63.a(uip-ds6.o)
 .debug_info    0x000000000001519a      0x37a build/cooja/mtype63.a(uip-udp-packet.)
 .debug_info    0x0000000000015514      0x881 build/cooja/mtype63.a(uip-ds6-route.o)
 .debug_info    0x0000000000015d95      0xf3d build/cooja/mtype63.a(tcpip.o)
 .debug_info    0x0000000000016cd2     0x116c build/cooja/mtype63.a(uip6.o)
 .debug_info    0x0000000000017e3e      0xb97 build/cooja/mtype63.a(uip-ds6-nbr.o)
 .debug_info    0x00000000000189d5      0x7fb build/cooja/mtype63.a(uip-nd6.o)
 .debug_info    0x00000000000191d0     0x1723 build/cooja/mtype63.a(sicslowpan.o)
 .debug_info    0x000000000001a8f3      0x30b build/cooja/mtype63.a(uiplib.o)
 .debug_info    0x000000000001abfe     0x10bb build/cooja/mtype63.a(rpl.o)
 .debug_info    0x000000000001bcb9     0x1065 build/cooja/mtype63.a(rpl-icmp6.o)
 .debug_info    0x000000000001cd1e      0xb33 build/cooja/mtype63.a(rpl-dag-root.o)
 .debug_info    0x000000000001d851       0xda build/cooja/mtype63.a(watchdog.o)
 .debug_info    0x000000000001d92b      0x119 build/cooja/mtype63.a(int-master.o)
 .debug_info    0x000000000001da44      0x330 build/cooja/mtype63.a(coap-timer-defa)
 .debug_info    0x000000000001dd74      0x187 build/cooja/mtype63.a(stimer.o)
 .debug_info    0x000000000001defb      0x1b8 build/cooja/mtype63.a(ringbuf.o)
 .debug_info    0x000000000001e0b3       0xb3 build/cooja/mtype63.a(assert.o)
 .debug_info    0x000000000001e166      0x95a build/cooja/mtype63.a(nbr-table.o)
 .debug_info    0x000000000001eac0      0x67c build/cooja/mtype63.a(link-stats.o)
 .debug_info    0x000000000001f13c      0x213 build/cooja/mtype63.a(mac-sequence.o)
 .debug_info    0x000000000001f34f       0xf3 build/cooja/mtype63.a(mac.o)
 .debug_info    0x000000000001f442      0x512 build/cooja/mtype63.a(framer-802154.o)
 .debug_info    0x000000000001f954      0x738 build/cooja/mtype63.a(frame802154.o)
 .debug_info    0x000000000002008c      0x166 build/cooja/mtype63.a(csma-security.o)
 .debug_info    0x00000000000201f2      0x575 build/cooja/mtype63.a(uipbuf.o)
 .debug_info    0x0000000000020767      0xd4a build/cooja/mtype63.a(uip-icmp6.o)
 .debug_info    0x00000000000214b1      0xb31 build/cooja/mtype63.a(uip-sr.o)
 .debug_info    0x0000000000021fe2      0x477 build/cooja/mtype63.a(uip-packetqueue)
 .debug_info    0x0000000000022459      0xc0e build/cooja/mtype63.a(rpl-nbr-policy.)
 .debug_info    0x0000000000023067      0xe69 build/cooja/mtype63.a(rpl-neighbor.o)
 .debug_info    0x0000000000023ed0      0xfe3 build/cooja/mtype63.a(rpl-dag.o)
 .debug_info    0x0000000000024eb3      0xcbb build/cooja/mtype63.a(rpl-timers.o)
 .debug_info    0x0000000000025b6e     0x1496 build/cooja/mtype63.a(rpl-ext-header.)
 .debug_info    0x0000000000027004      0x9bf build/cooja/mtype63.a(rpl-mrhof.o)

.debug_abbrev   0x0000000000000000     0x9305
 *(.debug_abbrev)
 .debug_abbrev  0x0000000000000000      0x257 oxygen_actuator.o
 .debug_abbrev  0x0000000000000257      0x27e build/cooja/mtype63.o
 .debug_abbrev  0x00000000000004d5       0xc3 build/cooja/mtype63.a(simEnvChange.o)
 .debug_abbrev  0x0000000000000598       0xe6 build/cooja/mtype63.a(cooja_mt.o)
 .debug_abbrev  0x000000000000067e      0x11e build/cooja/mtype63.a(cooja_mtarch.o)
 .debug_abbrev  0x000000000000079c       0xeb build/cooja/mtype63.a(rtimer-arch.o)
 .debug_abbrev  0x0000000000000887       0xe3 build/cooja/mtype63.a(beep.o)
 .debug_abbrev  0x000000000000096a       0xe0 build/cooja/mtype63.a(leds-arch.o)
 .debug_abbrev  0x0000000000000a4a       0x9c build/cooja/mtype63.a(moteid.o)
 .debug_abbrev  0x0000000000000ae6       0xe6 build/cooja/mtype63.a(pir-sensor.o)
 .debug_abbrev  0x0000000000000bcc      0x14a build/cooja/mtype63.a(rs232.o)
 .debug_abbrev  0x0000000000000d16       0xe6 build/cooja/mtype63.a(vib-sensor.o)
 .debug_abbrev  0x0000000000000dfc       0xee build/cooja/mtype63.a(clock.o)
 .debug_abbrev  0x0000000000000eea      0x141 build/cooja/mtype63.a(cooja-log.o)
 .debug_abbrev  0x000000000000102b      0x139 build/cooja/mtype63.a(cfs-cooja.o)
 .debug_abbrev  0x0000000000001164      0x2ef build/cooja/mtype63.a(cooja-radio.o)
 .debug_abbrev  0x0000000000001453       0xf5 build/cooja/mtype63.a(eeprom.o)
 .debug_abbrev  0x0000000000001548       0x6d build/cooja/mtype63.a(random.o)
 .debug_abbrev  0x00000000000015b5      0x1c2 build/cooja/mtype63.a(sensors.o)
 .debug_abbrev  0x0000000000001777       0xfc build/cooja/mtype63.a(leds.o)
 .debug_abbrev  0x0000000000001873      0x115 build/cooja/mtype63.a(gpio-hal-arch.o)
 .debug_abbrev  0x0000000000001988      0x16f build/cooja/mtype63.a(buttons.o)
 .debug_abbrev  0x0000000000001af7      0x1d0 build/cooja/mtype63.a(oxygen_generato)
 .debug_abbrev  0x0000000000001cc7      0x231 build/cooja/mtype63.a(coap-observe-cl)
 .debug_abbrev  0x0000000000001ef8      0x1c3 build/cooja/mtype63.a(coap-blocking-a)
 .debug_abbrev  0x00000000000020bb      0x2d5 build/cooja/mtype63.a(coap-engine.o)
 .debug_abbrev  0x0000000000002390      0x169 build/cooja/mtype63.a(coap-res-well-k)
 .debug_abbrev  0x00000000000024f9      0x234 build/cooja/mtype63.a(coap-observe.o)
 .debug_abbrev  0x000000000000272d      0x378 build/cooja/mtype63.a(coap-uip.o)
 .debug_abbrev  0x0000000000002aa5      0x155 build/cooja/mtype63.a(coap-timer.o)
 .debug_abbrev  0x0000000000002bfa      0x1c4 build/cooja/mtype63.a(coap-transactio)
 .debug_abbrev  0x0000000000002dbe      0x23c build/cooja/mtype63.a(coap.o)
 .debug_abbrev  0x0000000000002ffa      0x1ef build/cooja/mtype63.a(contiki-main.o)
 .debug_abbrev  0x00000000000031e9       0xfb build/cooja/mtype63.a(autostart.o)
 .debug_abbrev  0x00000000000032e4      0x1a1 build/cooja/mtype63.a(ctimer.o)
 .debug_abbrev  0x0000000000003485      0x159 build/cooja/mtype63.a(log.o)
 .debug_abbrev  0x00000000000035de       0x69 build/cooja/mtype63.a(energest.o)
 .debug_abbrev  0x0000000000003647      0x1f8 build/cooja/mtype63.a(etimer.o)
 .debug_abbrev  0x000000000000383f       0x9d build/cooja/mtype63.a(node-id.o)
 .debug_abbrev  0x00000000000038dc      0x126 build/cooja/mtype63.a(rtimer.o)
 .debug_abbrev  0x0000000000003a02      0x244 build/cooja/mtype63.a(process.o)
 .debug_abbrev  0x0000000000003c46       0xdb build/cooja/mtype63.a(timer.o)
 .debug_abbrev  0x0000000000003d21      0x136 build/cooja/mtype63.a(list.o)
 .debug_abbrev  0x0000000000003e57       0xe4 build/cooja/mtype63.a(memb.o)
 .debug_abbrev  0x0000000000003f3b      0x1ea build/cooja/mtype63.a(button-hal.o)
 .debug_abbrev  0x0000000000004125      0x190 build/cooja/mtype63.a(serial-line.o)
 .debug_abbrev  0x00000000000042b5       0xd4 build/cooja/mtype63.a(gpio-hal.o)
 .debug_abbrev  0x0000000000004389      0x1a6 build/cooja/mtype63.a(queuebuf.o)
 .debug_abbrev  0x000000000000452f      0x1da build/cooja/mtype63.a(packetbuf.o)
 .debug_abbrev  0x0000000000004709      0x1d5 build/cooja/mtype63.a(netstack.o)
 .debug_abbrev  0x00000000000048de       0xf2 build/cooja/mtype63.a(linkaddr.o)
 .debug_abbrev  0x00000000000049d0      0x1ff build/cooja/mtype63.a(csma.o)
 .debug_abbrev  0x0000000000004bcf      0x269 build/cooja/mtype63.a(csma-output.o)
 .debug_abbrev  0x0000000000004e38      0x272 build/cooja/mtype63.a(uip-ds6.o)
 .debug_abbrev  0x00000000000050aa      0x195 build/cooja/mtype63.a(uip-udp-packet.)
 .debug_abbrev  0x000000000000523f      0x2b0 build/cooja/mtype63.a(uip-ds6-route.o)
 .debug_abbrev  0x00000000000054ef      0x3a7 build/cooja/mtype63.a(tcpip.o)
 .debug_abbrev  0x0000000000005896      0x2cc build/cooja/mtype63.a(uip6.o)
 .debug_abbrev  0x0000000000005b62      0x295 build/cooja/mtype63.a(uip-ds6-nbr.o)
 .debug_abbrev  0x0000000000005df7      0x232 build/cooja/mtype63.a(uip-nd6.o)
 .debug_abbrev  0x0000000000006029      0x2e2 build/cooja/mtype63.a(sicslowpan.o)
 .debug_abbrev  0x000000000000630b      0x11d build/cooja/mtype63.a(uiplib.o)
 .debug_abbrev  0x0000000000006428      0x2d2 build/cooja/mtype63.a(rpl.o)
 .debug_abbrev  0x00000000000066fa      0x303 build/cooja/mtype63.a(rpl-icmp6.o)
 .debug_abbrev  0x00000000000069fd      0x21b build/cooja/mtype63.a(rpl-dag-root.o)
 .debug_abbrev  0x0000000000006c18       0x6b build/cooja/mtype63.a(watchdog.o)
 .debug_abbrev  0x0000000000006c83       0xcc build/cooja/mtype63.a(int-master.o)
 .debug_abbrev  0x0000000000006d4f      0x184 build/cooja/mtype63.a(coap-timer-defa)
 .debug_abbrev  0x0000000000006ed3       0xbf build/cooja/mtype63.a(stimer.o)
 .debug_abbrev  0x0000000000006f92       0xdb build/cooja/mtype63.a(ringbuf.o)
 .debug_abbrev  0x000000000000706d       0x61 build/cooja/mtype63.a(assert.o)
 .debug_abbrev  0x00000000000070ce      0x201 build/cooja/mtype63.a(nbr-table.o)
 .debug_abbrev  0x00000000000072cf      0x22b build/cooja/mtype63.a(link-stats.o)
 .debug_abbrev  0x00000000000074fa       0xed build/cooja/mtype63.a(mac-sequence.o)
 .debug_abbrev  0x00000000000075e7       0x8d build/cooja/mtype63.a(mac.o)
 .debug_abbrev  0x0000000000007674      0x16c build/cooja/mtype63.a(framer-802154.o)
 .debug_abbrev  0x00000000000077e0      0x215 build/cooja/mtype63.a(frame802154.o)
 .debug_abbrev  0x00000000000079f5       0xa4 build/cooja/mtype63.a(csma-security.o)
 .debug_abbrev  0x0000000000007a99      0x173 build/cooja/mtype63.a(uipbuf.o)
 .debug_abbrev  0x0000000000007c0c      0x29a build/cooja/mtype63.a(uip-icmp6.o)
 .debug_abbrev  0x0000000000007ea6      0x24e build/cooja/mtype63.a(uip-sr.o)
 .debug_abbrev  0x00000000000080f4      0x1d4 build/cooja/mtype63.a(uip-packetqueue)
 .debug_abbrev  0x00000000000082c8      0x25f build/cooja/mtype63.a(rpl-nbr-policy.)
 .debug_abbrev  0x0000000000008527      0x31d build/cooja/mtype63.a(rpl-neighbor.o)
 .debug_abbrev  0x0000000000008844      0x34c build/cooja/mtype63.a(rpl-dag.o)
 .debug_abbrev  0x0000000000008b90      0x297 build/cooja/mtype63.a(rpl-timers.o)
 .debug_abbrev  0x0000000000008e27      0x2f9 build/cooja/mtype63.a(rpl-ext-header.)
 .debug_abbrev  0x0000000000009120      0x1e5 build/cooja/mtype63.a(rpl-mrhof.o)

.debug_line     0x0000000000000000     0x9f2a
 *(.debug_line .debug_line.* .debug_line_end)
 .debug_line    0x0000000000000000      0x2eb oxygen_actuator.o
 .debug_line    0x00000000000002eb      0x2ed build/cooja/mtype63.o
 .debug_line    0x00000000000005d8       0xe3 build/cooja/mtype63.a(simEnvChange.o)
 .debug_line    0x00000000000006bb       0xc2 build/cooja/mtype63.a(cooja_mt.o)
 .debug_line    0x000000000000077d       0xbf build/cooja/mtype63.a(cooja_mtarch.o)
 .debug_line    0x000000000000083c       0xd1 build/cooja/mtype63.a(rtimer-arch.o)
 .debug_line    0x000000000000090d       0xd2 build/cooja/mtype63.a(beep.o)
 .debug_line    0x00000000000009df       0xd8 build/cooja/mtype63.a(leds-arch.o)
 .debug_line    0x0000000000000ab7       0x8f build/cooja/mtype63.a(moteid.o)
 .debug_line    0x0000000000000b46       0xc5 build/cooja/mtype63.a(pir-sensor.o)
 .debug_line    0x0000000000000c0b       0xd0 build/cooja/mtype63.a(rs232.o)
 .debug_line    0x0000000000000cdb       0xc5 build/cooja/mtype63.a(vib-sensor.o)
 .debug_line    0x0000000000000da0       0xc3 build/cooja/mtype63.a(clock.o)
 .debug_line    0x0000000000000e63      0x11f build/cooja/mtype63.a(cooja-log.o)
 .debug_line    0x0000000000000f82      0x112 build/cooja/mtype63.a(cfs-cooja.o)
 .debug_line    0x0000000000001094      0x286 build/cooja/mtype63.a(cooja-radio.o)
 .debug_line    0x000000000000131a       0xc4 build/cooja/mtype63.a(eeprom.o)
 .debug_line    0x00000000000013de       0x4a build/cooja/mtype63.a(random.o)
 .debug_line    0x0000000000001428      0x11a build/cooja/mtype63.a(sensors.o)
 .debug_line    0x0000000000001542      0x122 build/cooja/mtype63.a(leds.o)
 .debug_line    0x0000000000001664      0x157 build/cooja/mtype63.a(gpio-hal-arch.o)
 .debug_line    0x00000000000017bb      0x17f build/cooja/mtype63.a(buttons.o)
 .debug_line    0x000000000000193a      0x189 build/cooja/mtype63.a(oxygen_generato)
 .debug_line    0x0000000000001ac3      0x27a build/cooja/mtype63.a(coap-observe-cl)
 .debug_line    0x0000000000001d3d      0x1f0 build/cooja/mtype63.a(coap-blocking-a)
 .debug_line    0x0000000000001f2d      0x34b build/cooja/mtype63.a(coap-engine.o)
 .debug_line    0x0000000000002278      0x202 build/cooja/mtype63.a(coap-res-well-k)
 .debug_line    0x000000000000247a      0x2f6 build/cooja/mtype63.a(coap-observe.o)
 .debug_line    0x0000000000002770      0x364 build/cooja/mtype63.a(coap-uip.o)
 .debug_line    0x0000000000002ad4      0x103 build/cooja/mtype63.a(coap-timer.o)
 .debug_line    0x0000000000002bd7      0x1cc build/cooja/mtype63.a(coap-transactio)
 .debug_line    0x0000000000002da3      0x551 build/cooja/mtype63.a(coap.o)
 .debug_line    0x00000000000032f4      0x381 build/cooja/mtype63.a(contiki-main.o)
 .debug_line    0x0000000000003675       0x97 build/cooja/mtype63.a(autostart.o)
 .debug_line    0x000000000000370c      0x16f build/cooja/mtype63.a(ctimer.o)
 .debug_line    0x000000000000387b      0x158 build/cooja/mtype63.a(log.o)
 .debug_line    0x00000000000039d3       0x67 build/cooja/mtype63.a(energest.o)
 .debug_line    0x0000000000003a3a      0x198 build/cooja/mtype63.a(etimer.o)
 .debug_line    0x0000000000003bd2       0x7e build/cooja/mtype63.a(node-id.o)
 .debug_line    0x0000000000003c50       0x89 build/cooja/mtype63.a(rtimer.o)
 .debug_line    0x0000000000003cd9      0x181 build/cooja/mtype63.a(process.o)
 .debug_line    0x0000000000003e5a       0x9b build/cooja/mtype63.a(timer.o)
 .debug_line    0x0000000000003ef5      0x113 build/cooja/mtype63.a(list.o)
 .debug_line    0x0000000000004008       0xbc build/cooja/mtype63.a(memb.o)
 .debug_line    0x00000000000040c4      0x205 build/cooja/mtype63.a(button-hal.o)
 .debug_line    0x00000000000042c9      0x11e build/cooja/mtype63.a(serial-line.o)
 .debug_line    0x00000000000043e7       0xb8 build/cooja/mtype63.a(gpio-hal.o)
 .debug_line    0x000000000000449f       0xee build/cooja/mtype63.a(queuebuf.o)
 .debug_line    0x000000000000458d      0x10c build/cooja/mtype63.a(packetbuf.o)
 .debug_line    0x0000000000004699      0x11d build/cooja/mtype63.a(netstack.o)
 .debug_line    0x00000000000047b6       0x77 build/cooja/mtype63.a(linkaddr.o)
 .debug_line    0x000000000000482d      0x18a build/cooja/mtype63.a(csma.o)
 .debug_line    0x00000000000049b7      0x359 build/cooja/mtype63.a(csma-output.o)
 .debug_line    0x0000000000004d10      0x348 build/cooja/mtype63.a(uip-ds6.o)
 .debug_line    0x0000000000005058       0xd2 build/cooja/mtype63.a(uip-udp-packet.)
 .debug_line    0x000000000000512a      0x218 build/cooja/mtype63.a(uip-ds6-route.o)
 .debug_line    0x0000000000005342      0x322 build/cooja/mtype63.a(tcpip.o)
 .debug_line    0x0000000000005664      0x574 build/cooja/mtype63.a(uip6.o)
 .debug_line    0x0000000000005bd8      0x27e build/cooja/mtype63.a(uip-ds6-nbr.o)
 .debug_line    0x0000000000005e56      0x2af build/cooja/mtype63.a(uip-nd6.o)
 .debug_line    0x0000000000006105      0x9c7 build/cooja/mtype63.a(sicslowpan.o)
 .debug_line    0x0000000000006acc      0x1cb build/cooja/mtype63.a(uiplib.o)
 .debug_line    0x0000000000006c97      0x2eb build/cooja/mtype63.a(rpl.o)
 .debug_line    0x0000000000006f82      0x40a build/cooja/mtype63.a(rpl-icmp6.o)
 .debug_line    0x000000000000738c      0x1d4 build/cooja/mtype63.a(rpl-dag-root.o)
 .debug_line    0x0000000000007560       0x95 build/cooja/mtype63.a(watchdog.o)
 .debug_line    0x00000000000075f5       0x9b build/cooja/mtype63.a(int-master.o)
 .debug_line    0x0000000000007690      0x153 build/cooja/mtype63.a(coap-timer-defa)
 .debug_line    0x00000000000077e3       0x74 build/cooja/mtype63.a(stimer.o)
 .debug_line    0x0000000000007857       0x97 build/cooja/mtype63.a(ringbuf.o)
 .debug_line    0x00000000000078ee       0x48 build/cooja/mtype63.a(assert.o)
 .debug_line    0x0000000000007936      0x243 build/cooja/mtype63.a(nbr-table.o)
 .debug_line    0x0000000000007b79      0x200 build/cooja/mtype63.a(link-stats.o)
 .debug_line    0x0000000000007d79      0x10e build/cooja/mtype63.a(mac-sequence.o)
 .debug_line    0x0000000000007e87       0x53 build/cooja/mtype63.a(mac.o)
 .debug_line    0x0000000000007eda      0x17a build/cooja/mtype63.a(framer-802154.o)
 .debug_line    0x0000000000008054      0x2bb build/cooja/mtype63.a(frame802154.o)
 .debug_line    0x000000000000830f       0xaf build/cooja/mtype63.a(csma-security.o)
 .debug_line    0x00000000000083be      0x149 build/cooja/mtype63.a(uipbuf.o)
 .debug_line    0x0000000000008507      0x2d7 build/cooja/mtype63.a(uip-icmp6.o)
 .debug_line    0x00000000000087de      0x2e5 build/cooja/mtype63.a(uip-sr.o)
 .debug_line    0x0000000000008ac3      0x15e build/cooja/mtype63.a(uip-packetqueue)
 .debug_line    0x0000000000008c21      0x1d8 build/cooja/mtype63.a(rpl-nbr-policy.)
 .debug_line    0x0000000000008df9      0x370 build/cooja/mtype63.a(rpl-neighbor.o)
 .debug_line    0x0000000000009169      0x40a build/cooja/mtype63.a(rpl-dag.o)
 .debug_line    0x0000000000009573      0x2f0 build/cooja/mtype63.a(rpl-timers.o)
 .debug_line    0x0000000000009863      0x46e build/cooja/mtype63.a(rpl-ext-header.)
 .debug_line    0x0000000000009cd1      0x259 build/cooja/mtype63.a(rpl-mrhof.o)

.debug_frame
 *(.debug_frame)

.debug_str      0x0000000000000000     0x9c9a
 *(.debug_str)
 .debug_str     0x0000000000000000      0xa83 oxygen_actuator.o
                                        0xcb4 (size before relaxing)
 .debug_str     0x0000000000000a83     0x175f build/cooja/mtype63.o
                                       0x1957 (size before relaxing)
 .debug_str     0x00000000000021e2       0x2d build/cooja/mtype63.a(simEnvChange.o)
                                        0x1f4 (size before relaxing)
 .debug_str     0x000000000000220f       0x55 build/cooja/mtype63.a(cooja_mt.o)
                                        0x1f5 (size before relaxing)
 .debug_str     0x0000000000002264       0x94 build/cooja/mtype63.a(cooja_mtarch.o)
                                        0x1fa (size before relaxing)
 .debug_str     0x00000000000022f8      0x10c build/cooja/mtype63.a(rtimer-arch.o)
                                        0x247 (size before relaxing)
 .debug_str     0x0000000000002404       0xc3 build/cooja/mtype63.a(beep.o)
                                        0x23e (size before relaxing)
 .debug_str     0x00000000000024c7       0x9b build/cooja/mtype63.a(leds-arch.o)
                                        0x24b (size before relaxing)
 .debug_str     0x0000000000002562       0x46 build/cooja/mtype63.a(moteid.o)
                                        0x1f4 (size before relaxing)
 .debug_str     0x00000000000025a8       0x54 build/cooja/mtype63.a(pir-sensor.o)
                                        0x22b (size before relaxing)
 .debug_str     0x00000000000025fc       0xc0 build/cooja/mtype63.a(rs232.o)
                                        0x27f (size before relaxing)
 .debug_str     0x00000000000026bc       0x54 build/cooja/mtype63.a(vib-sensor.o)
                                        0x22b (size before relaxing)
 .debug_str     0x0000000000002710       0x70 build/cooja/mtype63.a(clock.o)
                                        0x220 (size before relaxing)
 .debug_str     0x0000000000002780       0xd6 build/cooja/mtype63.a(cooja-log.o)
                                        0x2ab (size before relaxing)
 .debug_str     0x0000000000002856      0x10b build/cooja/mtype63.a(cfs-cooja.o)
                                        0x2c1 (size before relaxing)
 .debug_str     0x0000000000002961      0x777 build/cooja/mtype63.a(cooja-radio.o)
                                        0xa65 (size before relaxing)
 .debug_str     0x00000000000030d8       0x98 build/cooja/mtype63.a(eeprom.o)
                                        0x241 (size before relaxing)
 .debug_str     0x0000000000003170       0x33 build/cooja/mtype63.a(random.o)
                                        0x159 (size before relaxing)
 .debug_str     0x00000000000031a3       0x99 build/cooja/mtype63.a(sensors.o)
                                        0x289 (size before relaxing)
 .debug_str     0x000000000000323c       0x8a build/cooja/mtype63.a(leds.o)
                                        0x214 (size before relaxing)
 .debug_str     0x00000000000032c6      0x2a5 build/cooja/mtype63.a(gpio-hal-arch.o)
                                        0x406 (size before relaxing)
 .debug_str     0x000000000000356b      0x10c build/cooja/mtype63.a(buttons.o)
                                        0x3c2 (size before relaxing)
 .debug_str     0x0000000000003677      0x423 build/cooja/mtype63.a(oxygen_generato)
                                        0xc40 (size before relaxing)
 .debug_str     0x0000000000003a9a      0x209 build/cooja/mtype63.a(coap-observe-cl)
                                        0xbe3 (size before relaxing)
 .debug_str     0x0000000000003ca3       0xa0 build/cooja/mtype63.a(coap-blocking-a)
                                        0x77e (size before relaxing)
 .debug_str     0x0000000000003d43      0x308 build/cooja/mtype63.a(coap-engine.o)
                                        0xe03 (size before relaxing)
 .debug_str     0x000000000000404b       0x68 build/cooja/mtype63.a(coap-res-well-k)
                                        0xbe0 (size before relaxing)
 .debug_str     0x00000000000040b3      0x1f3 build/cooja/mtype63.a(coap-observe.o)
                                        0xcf1 (size before relaxing)
 .debug_str     0x00000000000042a6      0x454 build/cooja/mtype63.a(coap-uip.o)
                                        0x9f4 (size before relaxing)
 .debug_str     0x00000000000046fa       0xb7 build/cooja/mtype63.a(coap-timer.o)
                                        0x2ab (size before relaxing)
 .debug_str     0x00000000000047b1      0x11c build/cooja/mtype63.a(coap-transactio)
                                        0x82e (size before relaxing)
 .debug_str     0x00000000000048cd      0x5d5 build/cooja/mtype63.a(coap.o)
                                        0xe5d (size before relaxing)
 .debug_str     0x0000000000004ea2      0x4ca build/cooja/mtype63.a(contiki-main.o)
                                        0xd32 (size before relaxing)
 .debug_str     0x000000000000536c       0x38 build/cooja/mtype63.a(autostart.o)
                                        0x1b5 (size before relaxing)
 .debug_str     0x00000000000053a4       0xc3 build/cooja/mtype63.a(ctimer.o)
                                        0x2b6 (size before relaxing)
 .debug_str     0x0000000000005467      0x1b1 build/cooja/mtype63.a(log.o)
                                        0x369 (size before relaxing)
 .debug_str     0x0000000000005618       0x4d build/cooja/mtype63.a(energest.o)
                                        0x17c (size before relaxing)
 .debug_str     0x0000000000005665      0x136 build/cooja/mtype63.a(etimer.o)
                                        0x329 (size before relaxing)
 .debug_str     0x000000000000579b       0x24 build/cooja/mtype63.a(node-id.o)
                                        0x179 (size before relaxing)
 .debug_str     0x00000000000057bf       0xb0 build/cooja/mtype63.a(rtimer.o)
                                        0x200 (size before relaxing)
 .debug_str     0x000000000000586f      0x154 build/cooja/mtype63.a(process.o)
                                        0x2eb (size before relaxing)
 .debug_str     0x00000000000059c3       0x15 build/cooja/mtype63.a(timer.o)
                                        0x1a4 (size before relaxing)
 .debug_str     0x00000000000059d8       0xb4 build/cooja/mtype63.a(list.o)
                                        0x1fb (size before relaxing)
 .debug_str     0x0000000000005a8c       0x5a build/cooja/mtype63.a(memb.o)
                                        0x195 (size before relaxing)
 .debug_str     0x0000000000005ae6      0x1b2 build/cooja/mtype63.a(button-hal.o)
                                        0x4ca (size before relaxing)
 .debug_str     0x0000000000005c98       0x9a build/cooja/mtype63.a(serial-line.o)
                                        0x274 (size before relaxing)
 .debug_str     0x0000000000005d32       0xec build/cooja/mtype63.a(gpio-hal.o)
                                        0x2ca (size before relaxing)
 .debug_str     0x0000000000005e1e      0x1ca build/cooja/mtype63.a(queuebuf.o)
                                        0x4ea (size before relaxing)
 .debug_str     0x0000000000005fe8      0x1b4 build/cooja/mtype63.a(packetbuf.o)
                                        0x527 (size before relaxing)
 .debug_str     0x000000000000619c      0x167 build/cooja/mtype63.a(netstack.o)
                                        0x455 (size before relaxing)
 .debug_str     0x0000000000006303       0x50 build/cooja/mtype63.a(linkaddr.o)
                                        0x1b6 (size before relaxing)
 .debug_str     0x0000000000006353       0x8f build/cooja/mtype63.a(csma.o)
                                        0x7ad (size before relaxing)
 .debug_str     0x00000000000063e2      0x282 build/cooja/mtype63.a(csma-output.o)
                                        0x84d (size before relaxing)
 .debug_str     0x0000000000006664      0x3ef build/cooja/mtype63.a(uip-ds6.o)
                                        0x6e7 (size before relaxing)
 .debug_str     0x0000000000006a53       0x74 build/cooja/mtype63.a(uip-udp-packet.)
                                        0x287 (size before relaxing)
 .debug_str     0x0000000000006ac7      0x222 build/cooja/mtype63.a(uip-ds6-route.o)
                                        0x5da (size before relaxing)
 .debug_str     0x0000000000006ce9      0x2af build/cooja/mtype63.a(tcpip.o)
                                        0x9e9 (size before relaxing)
 .debug_str     0x0000000000006f98      0x1f7 build/cooja/mtype63.a(uip6.o)
                                        0xa27 (size before relaxing)
 .debug_str     0x000000000000718f      0x1fc build/cooja/mtype63.a(uip-ds6-nbr.o)
                                        0x886 (size before relaxing)
 .debug_str     0x000000000000738b      0x11d build/cooja/mtype63.a(uip-nd6.o)
                                        0x5f3 (size before relaxing)
 .debug_str     0x00000000000074a8      0x589 build/cooja/mtype63.a(sicslowpan.o)
                                        0xf24 (size before relaxing)
 .debug_str     0x0000000000007a31       0x90 build/cooja/mtype63.a(uiplib.o)
                                        0x200 (size before relaxing)
 .debug_str     0x0000000000007ac1      0x2b2 build/cooja/mtype63.a(rpl.o)
                                        0xb9b (size before relaxing)
 .debug_str     0x0000000000007d73      0x1dd build/cooja/mtype63.a(rpl-icmp6.o)
                                        0xc5b (size before relaxing)
 .debug_str     0x0000000000007f50       0xa1 build/cooja/mtype63.a(rpl-dag-root.o)
                                        0x84c (size before relaxing)
 .debug_str     0x0000000000007ff1       0x76 build/cooja/mtype63.a(watchdog.o)
                                        0x1af (size before relaxing)
 .debug_str     0x0000000000008067       0x88 build/cooja/mtype63.a(int-master.o)
                                        0x1d8 (size before relaxing)
 .debug_str     0x00000000000080ef       0x6d build/cooja/mtype63.a(coap-timer-defa)
                                        0x298 (size before relaxing)
 .debug_str     0x000000000000815c       0x6c build/cooja/mtype63.a(stimer.o)
                                        0x1a8 (size before relaxing)
 .debug_str     0x00000000000081c8       0x5a build/cooja/mtype63.a(ringbuf.o)
                                        0x1b7 (size before relaxing)
 .debug_str     0x0000000000008222       0x26 build/cooja/mtype63.a(assert.o)
                                        0x151 (size before relaxing)
 .debug_str     0x0000000000008248      0x26c build/cooja/mtype63.a(nbr-table.o)
                                        0x59d (size before relaxing)
 .debug_str     0x00000000000084b4      0x129 build/cooja/mtype63.a(link-stats.o)
                                        0x6b1 (size before relaxing)
 .debug_str     0x00000000000085dd       0x70 build/cooja/mtype63.a(mac-sequence.o)
                                        0x377 (size before relaxing)
 .debug_str     0x000000000000864d       0x35 build/cooja/mtype63.a(mac.o)
                                        0x182 (size before relaxing)
 .debug_str     0x0000000000008682      0x22d build/cooja/mtype63.a(framer-802154.o)
                                        0x5bf (size before relaxing)
 .debug_str     0x00000000000088af      0x1f2 build/cooja/mtype63.a(frame802154.o)
                                        0x56e (size before relaxing)
 .debug_str     0x0000000000008aa1       0x5b build/cooja/mtype63.a(csma-security.o)
                                        0x34f (size before relaxing)
 .debug_str     0x0000000000008afc      0x1aa build/cooja/mtype63.a(uipbuf.o)
                                        0x44d (size before relaxing)
 .debug_str     0x0000000000008ca6      0x1ed build/cooja/mtype63.a(uip-icmp6.o)
                                        0x91a (size before relaxing)
 .debug_str     0x0000000000008e93      0x17b build/cooja/mtype63.a(uip-sr.o)
                                        0x70f (size before relaxing)
 .debug_str     0x000000000000900e       0xf3 build/cooja/mtype63.a(uip-packetqueue)
                                        0x339 (size before relaxing)
 .debug_str     0x0000000000009101       0xa4 build/cooja/mtype63.a(rpl-nbr-policy.)
                                        0x9ad (size before relaxing)
 .debug_str     0x00000000000091a5      0x28e build/cooja/mtype63.a(rpl-neighbor.o)
                                        0xa23 (size before relaxing)
 .debug_str     0x0000000000009433      0x2d0 build/cooja/mtype63.a(rpl-dag.o)
                                        0xb4b (size before relaxing)
 .debug_str     0x0000000000009703      0x321 build/cooja/mtype63.a(rpl-timers.o)
                                        0xa17 (size before relaxing)
 .debug_str     0x0000000000009a24      0x1b2 build/cooja/mtype63.a(rpl-ext-header.)
                                        0xf5c (size before relaxing)
 .debug_str     0x0000000000009bd6       0xc4 build/cooja/mtype63.a(rpl-mrhof.o)
                                        0x714 (size before relaxing)

.debug_loc
 *(.debug_loc)

.debug_macinfo
 *(.debug_macinfo)

.debug_weaknames
 *(.debug_weaknames)

.debug_funcnames
 *(.debug_funcnames)

.debug_typenames
 *(.debug_typenames)

.debug_varnames
 *(.debug_varnames)

.debug_pubtypes
 *(.debug_pubtypes)

.debug_ranges   0x0000000000000000      0x100
 *(.debug_ranges)
 .debug_ranges  0x0000000000000000       0x18 build/cooja/mtype63.a(etimer.o)
 .debug_ranges  0x0000000000000018       0x30 build/cooja/mtype63.a(csma-output.o)
 .debug_ranges  0x0000000000000048       0x18 build/cooja/mtype63.a(tcpip.o)
 .debug_ranges  0x0000000000000060       0x28 build/cooja/mtype63.a(uip-nd6.o)
 .debug_ranges  0x0000000000000088       0x48 build/cooja/mtype63.a(sicslowpan.o)
 .debug_ranges  0x00000000000000d0       0x30 build/cooja/mtype63.a(nbr-table.o)

.debug_macro
 *(.debug_macro)

.gnu.attributes
 *(.gnu.attributes)

/DISCARD/
 *(.note.GNU-stack)
 *(.gnu_debuglink)
 *(.gnu.lto_*)
OUTPUT(build/cooja/mtype63.cooja elf32-i386)
