Archive member included to satisfy reference by file (symbol)

build/cooja/mtype816.a(simEnvChange.o)
                              build/cooja/mtype816.o (simDontFallAsleep)
build/cooja/mtype816.a(cooja_mt.o)
                              build/cooja/mtype816.o (cooja_mt_start)
build/cooja/mtype816.a(cooja_mtarch.o)
                              build/cooja/mtype816.a(cooja_mt.o) (cooja_mtarch_start)
build/cooja/mtype816.a(rtimer-arch.o)
                              build/cooja/mtype816.o (rtimer_arch_check)
build/cooja/mtype816.a(beep.o)
                              build/cooja/mtype816.o (beep_interface)
build/cooja/mtype816.a(leds-arch.o)
                              build/cooja/mtype816.o (leds_interface)
build/cooja/mtype816.a(moteid.o)
                              build/cooja/mtype816.o (moteid_interface)
build/cooja/mtype816.a(pir-sensor.o)
                              build/cooja/mtype816.o (pir_interface)
build/cooja/mtype816.a(rs232.o)
                              build/cooja/mtype816.o (rs232_interface)
build/cooja/mtype816.a(vib-sensor.o)
                              build/cooja/mtype816.o (vib_interface)
build/cooja/mtype816.a(clock.o)
                              build/cooja/mtype816.o (clock_interface)
build/cooja/mtype816.a(cooja-log.o)
                              build/cooja/mtype816.o (simlog_interface)
build/cooja/mtype816.a(cfs-cooja.o)
                              build/cooja/mtype816.o (cfs_interface)
build/cooja/mtype816.a(cooja-radio.o)
                              build/cooja/mtype816.o (radio_interface)
build/cooja/mtype816.a(eeprom.o)
                              build/cooja/mtype816.o (eeprom_interface)
build/cooja/mtype816.a(random.o)
                              build/cooja/mtype816.a(moteid.o) (random_init)
build/cooja/mtype816.a(sensors.o)
                              build/cooja/mtype816.a(pir-sensor.o) (sensors_changed)
build/cooja/mtype816.a(leds.o)
                              build/cooja/mtype816.a(leds-arch.o) (leds_get)
build/cooja/mtype816.a(gpio-hal-arch.o)
                              build/cooja/mtype816.a(leds-arch.o) (gpio_hal_arch_register_pin_callback)
build/cooja/mtype816.a(buttons.o)
                              build/cooja/mtype816.o (button_interface)
build/cooja/mtype816.a(oxygen_measurin)
                              oxygen_sensor.o (oxygen_measuring_device)
build/cooja/mtype816.a(coap-blocking-a)
                              oxygen_sensor.o (coap_blocking_request)
build/cooja/mtype816.a(coap-engine.o)
                              oxygen_sensor.o (coap_activate_resource)
build/cooja/mtype816.a(coap-res-well-k)
                              build/cooja/mtype816.a(coap-engine.o) (res_well_known_core)
build/cooja/mtype816.a(coap-observe.o)
                              build/cooja/mtype816.a(coap-engine.o) (coap_remove_observer_by_mid)
build/cooja/mtype816.a(coap-uip.o)
                              build/cooja/mtype816.a(coap-observe.o) (coap_endpoint_copy)
build/cooja/mtype816.a(coap-timer.o)
                              build/cooja/mtype816.a(coap-engine.o) (coap_timer_set)
build/cooja/mtype816.a(coap-transactio)
                              build/cooja/mtype816.a(coap-blocking-a) (coap_send_transaction)
build/cooja/mtype816.a(coap.o)
                              build/cooja/mtype816.a(coap-engine.o) (coap_status_code)
build/cooja/mtype816.a(contiki-main.o)
                              build/cooja/mtype816.o (main)
build/cooja/mtype816.a(autostart.o)
                              build/cooja/mtype816.a(contiki-main.o) (autostart_start)
build/cooja/mtype816.a(ctimer.o)
                              build/cooja/mtype816.a(contiki-main.o) (ctimer_init)
build/cooja/mtype816.a(log.o)
                              build/cooja/mtype816.a(contiki-main.o) (curr_log_level_main)
build/cooja/mtype816.a(energest.o)
                              build/cooja/mtype816.a(contiki-main.o) (energest_init)
build/cooja/mtype816.a(etimer.o)
                              build/cooja/mtype816.a(contiki-main.o) (etimer_process)
build/cooja/mtype816.a(node-id.o)
                              build/cooja/mtype816.a(contiki-main.o) (node_id)
build/cooja/mtype816.a(rtimer.o)
                              build/cooja/mtype816.a(contiki-main.o) (rtimer_init)
build/cooja/mtype816.a(process.o)
                              build/cooja/mtype816.a(coap-blocking-a) (process_current)
build/cooja/mtype816.a(timer.o)
                              build/cooja/mtype816.a(etimer.o) (timer_set)
build/cooja/mtype816.a(list.o)
                              build/cooja/mtype816.a(coap-engine.o) (list_init)
build/cooja/mtype816.a(memb.o)
                              build/cooja/mtype816.a(coap-observe.o) (memb_alloc)
build/cooja/mtype816.a(button-hal.o)
                              build/cooja/mtype816.o (button_hal_init)
build/cooja/mtype816.a(serial-line.o)
                              build/cooja/mtype816.a(rs232.o) (serial_line_input_byte)
build/cooja/mtype816.a(gpio-hal.o)
                              build/cooja/mtype816.a(button-hal.o) (gpio_hal_register_handler)
build/cooja/mtype816.a(queuebuf.o)
                              build/cooja/mtype816.a(contiki-main.o) (queuebuf_init)
build/cooja/mtype816.a(packetbuf.o)
                              build/cooja/mtype816.a(cooja-radio.o) (packetbuf_clear)
build/cooja/mtype816.a(netstack.o)
                              build/cooja/mtype816.a(contiki-main.o) (netstack_init)
build/cooja/mtype816.a(linkaddr.o)
                              build/cooja/mtype816.a(contiki-main.o) (linkaddr_node_addr)
build/cooja/mtype816.a(csma.o)
                              build/cooja/mtype816.a(cooja-radio.o) (csma_driver)
build/cooja/mtype816.a(csma-output.o)
                              build/cooja/mtype816.a(csma.o) (csma_output_packet)
build/cooja/mtype816.a(uip-ds6.o)
                              build/cooja/mtype816.a(contiki-main.o) (uip_ds6_get_link_local)
build/cooja/mtype816.a(uip-udp-packet.)
                              build/cooja/mtype816.a(coap-uip.o) (uip_udp_packet_sendto)
build/cooja/mtype816.a(uip-ds6-route.o)
                              build/cooja/mtype816.a(uip-ds6.o) (uip_ds6_route_init)
build/cooja/mtype816.a(tcpip.o)
                              build/cooja/mtype816.a(coap-uip.o) (tcpip_event)
build/cooja/mtype816.a(uip6.o)
                              build/cooja/mtype816.a(contiki-main.o) (uip_lladdr)
build/cooja/mtype816.a(uip-ds6-nbr.o)
                              build/cooja/mtype816.a(uip-ds6.o) (uip_ds6_neighbors_init)
build/cooja/mtype816.a(uip-nd6.o)
                              build/cooja/mtype816.a(uip6.o) (uip_nd6_init)
build/cooja/mtype816.a(sicslowpan.o)
                              build/cooja/mtype816.a(contiki-main.o) (sicslowpan_driver)
build/cooja/mtype816.a(uiplib.o)
                              build/cooja/mtype816.a(coap-uip.o) (uiplib_ip6addrconv)
build/cooja/mtype816.a(rpl.o)
                              build/cooja/mtype816.a(coap-uip.o) (rpl_lite_driver)
build/cooja/mtype816.a(rpl-icmp6.o)
                              build/cooja/mtype816.a(rpl.o) (rpl_icmp6_init)
build/cooja/mtype816.a(rpl-dag-root.o)
                              build/cooja/mtype816.a(rpl.o) (rpl_dag_root_is_root)
build/cooja/mtype816.a(watchdog.o)
                              build/cooja/mtype816.a(contiki-main.o) (watchdog_init)
build/cooja/mtype816.a(int-master.o)
                              build/cooja/mtype816.a(button-hal.o) (int_master_read_and_disable)
build/cooja/mtype816.a(coap-observe-cl)
                              build/cooja/mtype816.a(coap-engine.o) (coap_handle_notification)
build/cooja/mtype816.a(coap-timer-defa)
                              build/cooja/mtype816.a(coap-timer.o) (coap_timer_default_driver)
build/cooja/mtype816.a(stimer.o)
                              build/cooja/mtype816.a(uip-ds6.o) (stimer_set)
build/cooja/mtype816.a(ringbuf.o)
                              build/cooja/mtype816.a(serial-line.o) (ringbuf_init)
build/cooja/mtype816.a(assert.o)
                              build/cooja/mtype816.a(csma-output.o) (_xassert)
build/cooja/mtype816.a(nbr-table.o)
                              build/cooja/mtype816.a(uip-ds6-nbr.o) (nbr_table_register)
build/cooja/mtype816.a(link-stats.o)
                              build/cooja/mtype816.a(sicslowpan.o) (link_stats_packet_sent)
build/cooja/mtype816.a(mac-sequence.o)
                              build/cooja/mtype816.a(csma.o) (mac_sequence_is_duplicate)
build/cooja/mtype816.a(mac.o)
                              build/cooja/mtype816.a(csma-output.o) (mac_call_sent_callback)
build/cooja/mtype816.a(framer-802154.o)
                              build/cooja/mtype816.a(csma.o) (framer_802154)
build/cooja/mtype816.a(frame802154.o)
                              build/cooja/mtype816.a(framer-802154.o) (frame802154_get_pan_id)
build/cooja/mtype816.a(csma-security.o)
                              build/cooja/mtype816.a(csma-output.o) (csma_security_create_frame)
build/cooja/mtype816.a(uipbuf.o)
                              build/cooja/mtype816.a(tcpip.o) (uipbuf_clear)
build/cooja/mtype816.a(uip-icmp6.o)
                              build/cooja/mtype816.a(uip6.o) (uip_icmp6_input)
build/cooja/mtype816.a(uip-sr.o)
                              build/cooja/mtype816.a(rpl-dag-root.o) (uip_sr_num_nodes)
build/cooja/mtype816.a(uip-packetqueue)
                              build/cooja/mtype816.a(uip-ds6-nbr.o) (uip_packetqueue_new)
build/cooja/mtype816.a(rpl-nbr-policy.)
                              build/cooja/mtype816.a(nbr-table.o) (rpl_nbr_policy_find_removable)
build/cooja/mtype816.a(rpl-neighbor.o)
                              build/cooja/mtype816.a(rpl-icmp6.o) (rpl_neighbor_get_ipaddr)
build/cooja/mtype816.a(rpl-dag.o)
                              build/cooja/mtype816.a(rpl.o) (curr_instance)
build/cooja/mtype816.a(rpl-timers.o)
                              build/cooja/mtype816.a(rpl-dag.o) (rpl_timers_schedule_periodic_dis)
build/cooja/mtype816.a(rpl-ext-header.)
                              build/cooja/mtype816.a(rpl.o) (rpl_ext_header_srh_get_next_hop)
build/cooja/mtype816.a(rpl-mrhof.o)
                              build/cooja/mtype816.a(rpl-dag.o) (rpl_mrhof)
/usr/lib/gcc/i686-linux-gnu/5/libgcc.a(_udivdi3.o)
                              build/cooja/mtype816.a(coap-timer-defa) (__udivdi3)

Allocating common symbols
Common symbol       size              file

simButtonIsDown     0x1               build/cooja/mtype816.a(buttons.o)
simOutDataBuffer    0x7d              build/cooja/mtype816.a(cooja-radio.o)
uip_ds6_prefix_list
                    0x60              build/cooja/mtype816.a(uip-ds6.o)
linkaddr_node_addr  0x8               build/cooja/mtype816.a(linkaddr.o)
simSerialReceivingFlag
                    0x1               build/cooja/mtype816.a(rs232.o)
simEEPROMData       0x400             build/cooja/mtype816.a(eeprom.o)
periodic_timer      0x20              build/cooja/mtype816.a(link-stats.o)
simLoggedLength     0x4               build/cooja/mtype816.a(cooja-log.o)
simSerialReceivingLength
                    0x4               build/cooja/mtype816.a(rs232.o)
simEtimerPending    0x4               build/cooja/mtype816.a(simEnvChange.o)
uip_slen            0x2               build/cooja/mtype816.a(uip6.o)
uip_ds6_timer_periodic
                    0x10              build/cooja/mtype816.a(uip-ds6.o)
eb_per_time_source  0x18              build/cooja/mtype816.a(contiki-main.o)
unicast_per_neighbor_rpl_storing
                    0x18              build/cooja/mtype816.a(contiki-main.o)
simVibChanged       0x1               build/cooja/mtype816.a(vib-sensor.o)
simRtimerPending    0x4               build/cooja/mtype816.a(rtimer-arch.o)
button_hal_periodic_event
                    0x1               build/cooja/mtype816.a(button-hal.o)
uip_ds6_netif_addr_list_offset
                    0x1               build/cooja/mtype816.a(uip-ds6.o)
uip_lladdr          0x8               build/cooja/mtype816.a(uip6.o)
button_hal_press_event
                    0x1               build/cooja/mtype816.a(button-hal.o)
simProcessRunValue  0x4               build/cooja/mtype816.a(simEnvChange.o)
serial_line_event_message
                    0x1               build/cooja/mtype816.a(serial-line.o)
uip_appdata         0x4               build/cooja/mtype816.a(uip6.o)
referenceVar        0x4               build/cooja/mtype816.o
simCurrentTime      0x4               build/cooja/mtype816.a(clock.o)
simVibIsActive      0x1               build/cooja/mtype816.a(vib-sensor.o)
unicast_per_neighbor_rpl_ns
                    0x18              build/cooja/mtype816.a(contiki-main.o)
uip_ds6_if          0xf8              build/cooja/mtype816.a(uip-ds6.o)
uip_flags           0x1               build/cooja/mtype816.a(uip6.o)
uip_ds6_timer_ra    0x8               build/cooja/mtype816.a(uip-ds6.o)
default_common      0x18              build/cooja/mtype816.a(contiki-main.o)
simSerialReceivingData
                    0x800             build/cooja/mtype816.a(rs232.o)
simLoggedFlag       0x1               build/cooja/mtype816.a(cooja-log.o)
packetbuf_attrs     0x1a              build/cooja/mtype816.a(packetbuf.o)
uip_ds6_addr_size   0x1               build/cooja/mtype816.a(uip-ds6.o)
uip_aligned_buf     0x500             build/cooja/mtype816.a(uip6.o)
simRtimerCurrentTicks
                    0x8               build/cooja/mtype816.a(rtimer-arch.o)
simRandomSeed       0x4               build/cooja/mtype816.a(moteid.o)
rpl_multicast_addr  0x10              build/cooja/mtype816.a(rpl.o)
simLoggedData       0x2000            build/cooja/mtype816.a(cooja-log.o)
simEtimerNextExpirationTime
                    0x4               build/cooja/mtype816.a(simEnvChange.o)
uip_len             0x2               build/cooja/mtype816.a(uip6.o)
simButtonChanged    0x1               build/cooja/mtype816.a(buttons.o)
simRtimerNextExpirationTime
                    0x8               build/cooja/mtype816.a(rtimer-arch.o)
simPirIsActive      0x1               build/cooja/mtype816.a(pir-sensor.o)
simInDataBuffer     0x7d              build/cooja/mtype816.a(cooja-radio.o)
simPirChanged       0x1               build/cooja/mtype816.a(pir-sensor.o)
simBeeped           0x1               build/cooja/mtype816.a(beep.o)
tcpip_event         0x1               build/cooja/mtype816.a(tcpip.o)
uip_sappdata        0x4               build/cooja/mtype816.a(uip6.o)
sensors_event       0x1               build/cooja/mtype816.a(sensors.o)
uip_udp_conns       0x100             build/cooja/mtype816.a(uip6.o)
button_hal_release_event
                    0x1               build/cooja/mtype816.a(button-hal.o)
packetbuf_addrs     0x10              build/cooja/mtype816.a(packetbuf.o)
uip_udp_conn        0x4               build/cooja/mtype816.a(uip6.o)
simMoteIDChanged    0x1               build/cooja/mtype816.a(moteid.o)
sensors_flags       0x4               build/cooja/mtype816.o
curr_instance       0x164             build/cooja/mtype816.a(rpl-dag.o)
simMoteID           0x4               build/cooja/mtype816.a(moteid.o)
uip_conn            0x4               build/cooja/mtype816.a(uip6.o)

Discarded input sections

 .note.GNU-stack
                0x0000000000000000        0x0 /usr/lib/gcc/i686-linux-gnu/5/../../../i386-linux-gnu/crti.o
 .group         0x0000000000000000        0x8 /usr/lib/gcc/i686-linux-gnu/5/crtbeginS.o
 .group         0x0000000000000000        0x8 /usr/lib/gcc/i686-linux-gnu/5/crtbeginS.o
 .text.__x86.get_pc_thunk.bx
                0x0000000000000000        0x4 /usr/lib/gcc/i686-linux-gnu/5/crtbeginS.o
 .note.GNU-stack
                0x0000000000000000        0x0 /usr/lib/gcc/i686-linux-gnu/5/crtbeginS.o
 .note.GNU-stack
                0x0000000000000000        0x0 oxygen_sensor.o
 .note.GNU-stack
                0x0000000000000000        0x0 build/cooja/mtype816.o
 .note.GNU-stack
                0x0000000000000000        0x0 build/cooja/mtype816.a(simEnvChange.o)
 .note.GNU-stack
                0x0000000000000000        0x0 build/cooja/mtype816.a(cooja_mt.o)
 .note.GNU-stack
                0x0000000000000000        0x0 build/cooja/mtype816.a(cooja_mtarch.o)
 .note.GNU-stack
                0x0000000000000000        0x0 build/cooja/mtype816.a(rtimer-arch.o)
 .note.GNU-stack
                0x0000000000000000        0x0 build/cooja/mtype816.a(beep.o)
 .note.GNU-stack
                0x0000000000000000        0x0 build/cooja/mtype816.a(leds-arch.o)
 .note.GNU-stack
                0x0000000000000000        0x0 build/cooja/mtype816.a(moteid.o)
 .note.GNU-stack
                0x0000000000000000        0x0 build/cooja/mtype816.a(pir-sensor.o)
 .note.GNU-stack
                0x0000000000000000        0x0 build/cooja/mtype816.a(rs232.o)
 .note.GNU-stack
                0x0000000000000000        0x0 build/cooja/mtype816.a(vib-sensor.o)
 .note.GNU-stack
                0x0000000000000000        0x0 build/cooja/mtype816.a(clock.o)
 .note.GNU-stack
                0x0000000000000000        0x0 build/cooja/mtype816.a(cooja-log.o)
 .note.GNU-stack
                0x0000000000000000        0x0 build/cooja/mtype816.a(cfs-cooja.o)
 .note.GNU-stack
                0x0000000000000000        0x0 build/cooja/mtype816.a(cooja-radio.o)
 .note.GNU-stack
                0x0000000000000000        0x0 build/cooja/mtype816.a(eeprom.o)
 .note.GNU-stack
                0x0000000000000000        0x0 build/cooja/mtype816.a(random.o)
 .note.GNU-stack
                0x0000000000000000        0x0 build/cooja/mtype816.a(sensors.o)
 .note.GNU-stack
                0x0000000000000000        0x0 build/cooja/mtype816.a(leds.o)
 .note.GNU-stack
                0x0000000000000000        0x0 build/cooja/mtype816.a(gpio-hal-arch.o)
 .note.GNU-stack
                0x0000000000000000        0x0 build/cooja/mtype816.a(buttons.o)
 .note.GNU-stack
                0x0000000000000000        0x0 build/cooja/mtype816.a(oxygen_measurin)
 .note.GNU-stack
                0x0000000000000000        0x0 build/cooja/mtype816.a(coap-blocking-a)
 .note.GNU-stack
                0x0000000000000000        0x0 build/cooja/mtype816.a(coap-engine.o)
 .note.GNU-stack
                0x0000000000000000        0x0 build/cooja/mtype816.a(coap-res-well-k)
 .note.GNU-stack
                0x0000000000000000        0x0 build/cooja/mtype816.a(coap-observe.o)
 .note.GNU-stack
                0x0000000000000000        0x0 build/cooja/mtype816.a(coap-uip.o)
 .note.GNU-stack
                0x0000000000000000        0x0 build/cooja/mtype816.a(coap-timer.o)
 .note.GNU-stack
                0x0000000000000000        0x0 build/cooja/mtype816.a(coap-transactio)
 .note.GNU-stack
                0x0000000000000000        0x0 build/cooja/mtype816.a(coap.o)
 .note.GNU-stack
                0x0000000000000000        0x0 build/cooja/mtype816.a(contiki-main.o)
 .note.GNU-stack
                0x0000000000000000        0x0 build/cooja/mtype816.a(autostart.o)
 .note.GNU-stack
                0x0000000000000000        0x0 build/cooja/mtype816.a(ctimer.o)
 .note.GNU-stack
                0x0000000000000000        0x0 build/cooja/mtype816.a(log.o)
 .note.GNU-stack
                0x0000000000000000        0x0 build/cooja/mtype816.a(energest.o)
 .note.GNU-stack
                0x0000000000000000        0x0 build/cooja/mtype816.a(etimer.o)
 .note.GNU-stack
                0x0000000000000000        0x0 build/cooja/mtype816.a(node-id.o)
 .note.GNU-stack
                0x0000000000000000        0x0 build/cooja/mtype816.a(rtimer.o)
 .note.GNU-stack
                0x0000000000000000        0x0 build/cooja/mtype816.a(process.o)
 .note.GNU-stack
                0x0000000000000000        0x0 build/cooja/mtype816.a(timer.o)
 .note.GNU-stack
                0x0000000000000000        0x0 build/cooja/mtype816.a(list.o)
 .note.GNU-stack
                0x0000000000000000        0x0 build/cooja/mtype816.a(memb.o)
 .note.GNU-stack
                0x0000000000000000        0x0 build/cooja/mtype816.a(button-hal.o)
 .note.GNU-stack
                0x0000000000000000        0x0 build/cooja/mtype816.a(serial-line.o)
 .note.GNU-stack
                0x0000000000000000        0x0 build/cooja/mtype816.a(gpio-hal.o)
 .note.GNU-stack
                0x0000000000000000        0x0 build/cooja/mtype816.a(queuebuf.o)
 .note.GNU-stack
                0x0000000000000000        0x0 build/cooja/mtype816.a(packetbuf.o)
 .note.GNU-stack
                0x0000000000000000        0x0 build/cooja/mtype816.a(netstack.o)
 .note.GNU-stack
                0x0000000000000000        0x0 build/cooja/mtype816.a(linkaddr.o)
 .note.GNU-stack
                0x0000000000000000        0x0 build/cooja/mtype816.a(csma.o)
 .note.GNU-stack
                0x0000000000000000        0x0 build/cooja/mtype816.a(csma-output.o)
 .note.GNU-stack
                0x0000000000000000        0x0 build/cooja/mtype816.a(uip-ds6.o)
 .note.GNU-stack
                0x0000000000000000        0x0 build/cooja/mtype816.a(uip-udp-packet.)
 .note.GNU-stack
                0x0000000000000000        0x0 build/cooja/mtype816.a(uip-ds6-route.o)
 .note.GNU-stack
                0x0000000000000000        0x0 build/cooja/mtype816.a(tcpip.o)
 .note.GNU-stack
                0x0000000000000000        0x0 build/cooja/mtype816.a(uip6.o)
 .note.GNU-stack
                0x0000000000000000        0x0 build/cooja/mtype816.a(uip-ds6-nbr.o)
 .note.GNU-stack
                0x0000000000000000        0x0 build/cooja/mtype816.a(uip-nd6.o)
 .note.GNU-stack
                0x0000000000000000        0x0 build/cooja/mtype816.a(sicslowpan.o)
 .note.GNU-stack
                0x0000000000000000        0x0 build/cooja/mtype816.a(uiplib.o)
 .note.GNU-stack
                0x0000000000000000        0x0 build/cooja/mtype816.a(rpl.o)
 .note.GNU-stack
                0x0000000000000000        0x0 build/cooja/mtype816.a(rpl-icmp6.o)
 .note.GNU-stack
                0x0000000000000000        0x0 build/cooja/mtype816.a(rpl-dag-root.o)
 .note.GNU-stack
                0x0000000000000000        0x0 build/cooja/mtype816.a(watchdog.o)
 .note.GNU-stack
                0x0000000000000000        0x0 build/cooja/mtype816.a(int-master.o)
 .note.GNU-stack
                0x0000000000000000        0x0 build/cooja/mtype816.a(coap-observe-cl)
 .note.GNU-stack
                0x0000000000000000        0x0 build/cooja/mtype816.a(coap-timer-defa)
 .note.GNU-stack
                0x0000000000000000        0x0 build/cooja/mtype816.a(stimer.o)
 .note.GNU-stack
                0x0000000000000000        0x0 build/cooja/mtype816.a(ringbuf.o)
 .note.GNU-stack
                0x0000000000000000        0x0 build/cooja/mtype816.a(assert.o)
 .note.GNU-stack
                0x0000000000000000        0x0 build/cooja/mtype816.a(nbr-table.o)
 .note.GNU-stack
                0x0000000000000000        0x0 build/cooja/mtype816.a(link-stats.o)
 .note.GNU-stack
                0x0000000000000000        0x0 build/cooja/mtype816.a(mac-sequence.o)
 .note.GNU-stack
                0x0000000000000000        0x0 build/cooja/mtype816.a(mac.o)
 .note.GNU-stack
                0x0000000000000000        0x0 build/cooja/mtype816.a(framer-802154.o)
 .note.GNU-stack
                0x0000000000000000        0x0 build/cooja/mtype816.a(frame802154.o)
 .note.GNU-stack
                0x0000000000000000        0x0 build/cooja/mtype816.a(csma-security.o)
 .note.GNU-stack
                0x0000000000000000        0x0 build/cooja/mtype816.a(uipbuf.o)
 .note.GNU-stack
                0x0000000000000000        0x0 build/cooja/mtype816.a(uip-icmp6.o)
 .note.GNU-stack
                0x0000000000000000        0x0 build/cooja/mtype816.a(uip-sr.o)
 .note.GNU-stack
                0x0000000000000000        0x0 build/cooja/mtype816.a(uip-packetqueue)
 .note.GNU-stack
                0x0000000000000000        0x0 build/cooja/mtype816.a(rpl-nbr-policy.)
 .note.GNU-stack
                0x0000000000000000        0x0 build/cooja/mtype816.a(rpl-neighbor.o)
 .note.GNU-stack
                0x0000000000000000        0x0 build/cooja/mtype816.a(rpl-dag.o)
 .note.GNU-stack
                0x0000000000000000        0x0 build/cooja/mtype816.a(rpl-timers.o)
 .note.GNU-stack
                0x0000000000000000        0x0 build/cooja/mtype816.a(rpl-ext-header.)
 .note.GNU-stack
                0x0000000000000000        0x0 build/cooja/mtype816.a(rpl-mrhof.o)
 .note.GNU-stack
                0x0000000000000000        0x0 /usr/lib/gcc/i686-linux-gnu/5/libgcc.a(_udivdi3.o)
 .note.GNU-stack
                0x0000000000000000        0x0 /usr/lib/gcc/i686-linux-gnu/5/crtendS.o
 .note.GNU-stack
                0x0000000000000000        0x0 /usr/lib/gcc/i686-linux-gnu/5/../../../i386-linux-gnu/crtn.o

Memory Configuration

Name             Origin             Length             Attributes
*default*        0x0000000000000000 0xffffffffffffffff

Linker script and memory map

LOAD /usr/lib/gcc/i686-linux-gnu/5/../../../i386-linux-gnu/crti.o
LOAD /usr/lib/gcc/i686-linux-gnu/5/crtbeginS.o
LOAD oxygen_sensor.o
LOAD build/cooja/mtype816.o
LOAD build/cooja/mtype816.a
LOAD /usr/lib/gcc/i686-linux-gnu/5/libgcc.a
LOAD /usr/lib/gcc/i686-linux-gnu/5/libgcc_s.so
LOAD /usr/lib/gcc/i686-linux-gnu/5/../../../i386-linux-gnu/libc.so
START GROUP
LOAD /lib/i386-linux-gnu/libc.so.6
LOAD /usr/lib/i386-linux-gnu/libc_nonshared.a
LOAD /lib/i386-linux-gnu/ld-linux.so.2
END GROUP
LOAD /usr/lib/gcc/i686-linux-gnu/5/libgcc.a
LOAD /usr/lib/gcc/i686-linux-gnu/5/libgcc_s.so
LOAD /usr/lib/gcc/i686-linux-gnu/5/crtendS.o
LOAD /usr/lib/gcc/i686-linux-gnu/5/../../../i386-linux-gnu/crtn.o
                0x0000000000000114                . = (0x0 + SIZEOF_HEADERS)

.note.gnu.build-id
                0x0000000000000114       0x24
 *(.note.gnu.build-id)
 .note.gnu.build-id
                0x0000000000000114       0x24 /usr/lib/gcc/i686-linux-gnu/5/../../../i386-linux-gnu/crti.o

.hash
 *(.hash)

.gnu.hash       0x0000000000000138     0x15b8
 *(.gnu.hash)
 .gnu.hash      0x0000000000000138     0x15b8 /usr/lib/gcc/i686-linux-gnu/5/../../../i386-linux-gnu/crti.o

.dynsym         0x00000000000016f0     0x2f60
 *(.dynsym)
 .dynsym        0x00000000000016f0     0x2f60 /usr/lib/gcc/i686-linux-gnu/5/../../../i386-linux-gnu/crti.o

.dynstr         0x0000000000004650     0x3772
 *(.dynstr)
 .dynstr        0x0000000000004650     0x3772 /usr/lib/gcc/i686-linux-gnu/5/../../../i386-linux-gnu/crti.o

.gnu.version    0x0000000000007dc2      0x5ec
 *(.gnu.version)
 .gnu.version   0x0000000000007dc2      0x5ec /usr/lib/gcc/i686-linux-gnu/5/../../../i386-linux-gnu/crti.o

.gnu.version_d  0x00000000000083b0        0x0
 *(.gnu.version_d)
 .gnu.version_d
                0x00000000000083b0        0x0 /usr/lib/gcc/i686-linux-gnu/5/../../../i386-linux-gnu/crti.o

.gnu.version_r  0x00000000000083b0       0x40
 *(.gnu.version_r)
 .gnu.version_r
                0x00000000000083b0       0x40 /usr/lib/gcc/i686-linux-gnu/5/../../../i386-linux-gnu/crti.o

.rel.dyn        0x00000000000083f0     0x91e8
 *(.rel.init)
 .rel.init      0x00000000000083f0        0x0 /usr/lib/gcc/i686-linux-gnu/5/../../../i386-linux-gnu/crti.o
 *(.rel.text .rel.text.* .rel.gnu.linkonce.t.*)
 .rel.text      0x00000000000083f0     0x8820 /usr/lib/gcc/i686-linux-gnu/5/../../../i386-linux-gnu/crti.o
 *(.rel.fini)
 .rel.fini      0x0000000000010c10        0x0 /usr/lib/gcc/i686-linux-gnu/5/../../../i386-linux-gnu/crti.o
 *(.rel.rodata .rel.rodata.* .rel.gnu.linkonce.r.*)
 .rel.rodata    0x0000000000010c10      0x588 /usr/lib/gcc/i686-linux-gnu/5/../../../i386-linux-gnu/crti.o
 *(.rel.data.rel.ro .rel.data.rel.ro.* .rel.gnu.linkonce.d.rel.ro.*)
 *(.rel.data .rel.data.* .rel.gnu.linkonce.d.*)
 .rel.data.rel.local
                0x0000000000011198        0x8 /usr/lib/gcc/i686-linux-gnu/5/../../../i386-linux-gnu/crti.o
 .rel.data      0x00000000000111a0      0x400 /usr/lib/gcc/i686-linux-gnu/5/../../../i386-linux-gnu/crti.o
 *(.rel.tdata .rel.tdata.* .rel.gnu.linkonce.td.*)
 *(.rel.tbss .rel.tbss.* .rel.gnu.linkonce.tb.*)
 *(.rel.ctors)
 *(.rel.dtors)
 *(.rel.got)
 .rel.got       0x00000000000115a0       0x28 /usr/lib/gcc/i686-linux-gnu/5/../../../i386-linux-gnu/crti.o
 *(.rel.bss .rel.bss.* .rel.gnu.linkonce.b.*)
 *(.rel.ifunc)
 .rel.ifunc     0x00000000000115c8        0x0 /usr/lib/gcc/i686-linux-gnu/5/../../../i386-linux-gnu/crti.o
 .rel.fini_array
                0x00000000000115c8        0x8 /usr/lib/gcc/i686-linux-gnu/5/../../../i386-linux-gnu/crti.o
 .rel.init_array
                0x00000000000115d0        0x8 /usr/lib/gcc/i686-linux-gnu/5/../../../i386-linux-gnu/crti.o

.rel.plt        0x00000000000115d8        0x0
 *(.rel.plt)
 .rel.plt       0x00000000000115d8        0x0 /usr/lib/gcc/i686-linux-gnu/5/../../../i386-linux-gnu/crti.o
 *(.rel.iplt)

.init           0x00000000000115d8       0x23
 *(SORT(.init))
 .init          0x00000000000115d8       0x1e /usr/lib/gcc/i686-linux-gnu/5/../../../i386-linux-gnu/crti.o
                0x00000000000115d8                _init
 .init          0x00000000000115f6        0x5 /usr/lib/gcc/i686-linux-gnu/5/../../../i386-linux-gnu/crtn.o

.plt            0x0000000000011600       0x10
 *(.plt)
 .plt           0x0000000000011600       0x10 /usr/lib/gcc/i686-linux-gnu/5/../../../i386-linux-gnu/crti.o
 *(.iplt)

.plt.got        0x0000000000011610       0x10
 *(.plt.got)
 .plt.got       0x0000000000011610       0x10 /usr/lib/gcc/i686-linux-gnu/5/../../../i386-linux-gnu/crti.o

.text           0x0000000000011620    0x18c22
 *(.text.unlikely .text.*_unlikely .text.unlikely.*)
 .text.unlikely
                0x0000000000011620        0x0 /usr/lib/gcc/i686-linux-gnu/5/crtbeginS.o
 .text.unlikely
                0x0000000000011620        0x0 /usr/lib/gcc/i686-linux-gnu/5/libgcc.a(_udivdi3.o)
 *(.text.exit .text.exit.*)
 *(.text.startup .text.startup.*)
 *(.text.hot .text.hot.*)
 *(.text .stub .text.* .gnu.linkonce.t.*)
 .text          0x0000000000011620        0x0 /usr/lib/gcc/i686-linux-gnu/5/../../../i386-linux-gnu/crti.o
 .gnu.linkonce.t.__x86.get_pc_thunk.bx
                0x0000000000011620        0x4 /usr/lib/gcc/i686-linux-gnu/5/../../../i386-linux-gnu/crti.o
                0x0000000000011620                __x86.get_pc_thunk.bx
 *fill*         0x0000000000011624        0xc 
 .text          0x0000000000011630      0x11c /usr/lib/gcc/i686-linux-gnu/5/crtbeginS.o
 .text.__x86.get_pc_thunk.dx
                0x000000000001174c        0x4 /usr/lib/gcc/i686-linux-gnu/5/crtbeginS.o
                0x000000000001174c                __x86.get_pc_thunk.dx
 .text          0x0000000000011750      0x2f9 oxygen_sensor.o
                0x0000000000011750                wait_for_ack
 .text          0x0000000000011a49      0x283 build/cooja/mtype816.o
                0x0000000000011adb                platform_init_stage_one
                0x0000000000011aee                platform_init_stage_two
                0x0000000000011b01                platform_init_stage_three
                0x0000000000011b14                platform_main_loop
                0x0000000000011b87                Java_org_contikios_cooja_corecomm_Lib2_init
                0x0000000000011bbe                Java_org_contikios_cooja_corecomm_Lib2_getMemory
                0x0000000000011bf1                Java_org_contikios_cooja_corecomm_Lib2_setMemory
                0x0000000000011c51                Java_org_contikios_cooja_corecomm_Lib2_tick
                0x0000000000011cb9                Java_org_contikios_cooja_corecomm_Lib2_setReferenceAddress
 .text          0x0000000000011ccc       0x65 build/cooja/mtype816.a(simEnvChange.o)
                0x0000000000011ccc                doActionsBeforeTick
                0x0000000000011cfe                doActionsAfterTick
 .text          0x0000000000011d31       0x83 build/cooja/mtype816.a(cooja_mt.o)
                0x0000000000011d31                cooja_mt_start
                0x0000000000011d5b                cooja_mt_exec
                0x0000000000011d91                cooja_mt_yield
 .text          0x0000000000011db4       0xbe build/cooja/mtype816.a(cooja_mtarch.o)
                0x0000000000011db4                cooja_mtarch_start
                0x0000000000011e27                cooja_sw
                0x0000000000011e4a                cooja_mtarch_exec
                0x0000000000011e67                cooja_mtarch_yield
 .text          0x0000000000011e72       0xc5 build/cooja/mtype816.a(rtimer-arch.o)
                0x0000000000011e72                rtimer_arch_init
                0x0000000000011e96                rtimer_arch_schedule
                0x0000000000011ec6                rtimer_arch_next
                0x0000000000011ed6                rtimer_arch_pending
                0x0000000000011ee0                rtimer_arch_check
                0x0000000000011f27                rtimer_arch_now
 .text          0x0000000000011f37       0x81 build/cooja/mtype816.a(beep.o)
                0x0000000000011f37                beep_alarm
                0x0000000000011f44                beep_beep
                0x0000000000011f51                beep
                0x0000000000011f5e                beep_down
                0x0000000000011f6b                beep_on
                0x0000000000011f78                beep_off
                0x0000000000011f85                beep_spinup
                0x0000000000011f92                beep_quick
                0x0000000000011f9f                beep_long
 .text          0x0000000000011fb8       0x65 build/cooja/mtype816.a(leds-arch.o)
                0x0000000000011fcb                leds_arch_init
 .text          0x000000000001201d       0x35 build/cooja/mtype816.a(moteid.o)
 .text          0x0000000000012052       0xb7 build/cooja/mtype816.a(pir-sensor.o)
 .text          0x0000000000012109      0x148 build/cooja/mtype816.a(rs232.o)
                0x0000000000012109                rs232_init
                0x000000000001210f                rs232_set_speed
                0x000000000001211e                rs232_set_input
                0x000000000001212c                rs232_send
                0x0000000000012150                rs232_print
                0x000000000001216c                slip_arch_writeb
 .text          0x0000000000012251       0xb7 build/cooja/mtype816.a(vib-sensor.o)
 .text          0x0000000000012308       0x38 build/cooja/mtype816.a(clock.o)
                0x0000000000012308                clock_init
                0x000000000001230e                clock_time
                0x0000000000012318                clock_seconds
                0x000000000001232e                clock_delay
 .text          0x0000000000012340      0x219 build/cooja/mtype816.a(cooja-log.o)
                0x0000000000012340                simlog_char
                0x0000000000012383                simlog
                0x00000000000123f9                log_message
                0x000000000001242a                log_set_putchar_with_slip
                0x0000000000012438                log_putchar
                0x00000000000124b3                log_puts
                0x00000000000124db                log_printf
 .text          0x0000000000012559      0x2b9 build/cooja/mtype816.a(cfs-cooja.o)
                0x0000000000012559                cfs_open
                0x00000000000125c2                cfs_close
                0x00000000000125cf                cfs_read
                0x0000000000012664                cfs_write
                0x0000000000012740                cfs_seek
                0x00000000000127c8                cfs_remove
                0x00000000000127ec                cfs_opendir
                0x00000000000127f6                cfs_readdir
                0x0000000000012800                cfs_closedir
 .text          0x0000000000012812      0x620 build/cooja/mtype816.a(cooja-radio.o)
                0x0000000000012854                radio_set_channel
                0x0000000000012862                radio_set_txpower
                0x000000000001287a                radio_signal_strength_last
                0x0000000000012884                radio_signal_strength_current
                0x000000000001288e                radio_LQI
 .text          0x0000000000012e32       0xee build/cooja/mtype816.a(eeprom.o)
                0x0000000000012e32                eeprom_init
                0x0000000000012e38                eeprom_read
                0x0000000000012ea6                eeprom_write
 .text          0x0000000000012f20       0x2d build/cooja/mtype816.a(random.o)
                0x0000000000012f20                random_init
                0x0000000000012f40                random_rand
 .text          0x0000000000012f4d      0x29c build/cooja/mtype816.a(sensors.o)
                0x0000000000012f88                sensors_first
                0x0000000000012f92                sensors_next
                0x0000000000012fac                sensors_changed
                0x0000000000012fe0                sensors_find
 .text          0x00000000000131e9      0x349 build/cooja/mtype816.a(leds.o)
                0x00000000000131e9                leds_init
                0x0000000000013230                leds_single_on
                0x000000000001328f                leds_single_off
                0x00000000000132ee                leds_single_toggle
                0x0000000000013320                leds_on
                0x00000000000133a2                leds_off
                0x0000000000013424                leds_toggle
                0x0000000000013479                leds_set
                0x00000000000134a5                leds_get
 .text          0x0000000000013532      0x343 build/cooja/mtype816.a(gpio-hal-arch.o)
                0x0000000000013532                gpio_hal_arch_register_pin_callback
                0x000000000001359e                gpio_hal_arch_init
                0x00000000000135e3                gpio_hal_arch_no_port_interrupt_enable
                0x0000000000013613                gpio_hal_arch_no_port_interrupt_disable
                0x0000000000013643                gpio_hal_arch_no_port_pin_cfg_set
                0x0000000000013668                gpio_hal_arch_no_port_pin_cfg_get
                0x000000000001368e                gpio_hal_arch_no_port_pin_set_input
                0x00000000000136a0                gpio_hal_arch_no_port_pin_set_output
                0x00000000000136b2                gpio_hal_arch_no_port_set_pin
                0x00000000000136d3                gpio_hal_arch_no_port_clear_pin
                0x00000000000136f4                gpio_hal_arch_no_port_read_pin
                0x000000000001371a                gpio_hal_arch_no_port_write_pin
                0x0000000000013744                gpio_hal_arch_no_port_set_pins
                0x000000000001378b                gpio_hal_arch_no_port_clear_pins
                0x00000000000137d2                gpio_hal_arch_no_port_read_pins
                0x0000000000013815                gpio_hal_arch_no_port_write_pins
 .text          0x0000000000013875       0x89 build/cooja/mtype816.a(buttons.o)
 .text          0x00000000000138fe      0x146 build/cooja/mtype816.a(oxygen_measurin)
                0x00000000000138fe                randInRange
 .text          0x0000000000013a44      0x27b build/cooja/mtype816.a(coap-blocking-a)
                0x0000000000013a44                coap_blocking_request_callback
                0x0000000000013a6e                coap_blocking_request
 .text          0x0000000000013cbf      0xc26 build/cooja/mtype816.a(coap-engine.o)
                0x0000000000013d54                coap_add_handler
                0x0000000000013d71                coap_remove_handler
                0x0000000000013d8e                coap_call_handlers
                0x0000000000013e96                coap_receive
                0x00000000000144cd                coap_engine_init
                0x000000000001452b                coap_activate_resource
                0x00000000000145d6                coap_get_first_resource
                0x00000000000145ef                coap_get_next_resource
 .text          0x00000000000148e5      0x2d9 build/cooja/mtype816.a(coap-res-well-k)
 .text          0x0000000000014bbe      0x96a build/cooja/mtype816.a(coap-observe.o)
                0x0000000000014cd3                coap_remove_observer
                0x0000000000014d03                coap_remove_observer_by_client
                0x0000000000014d6b                coap_remove_observer_by_token
                0x0000000000014dfe                coap_remove_observer_by_uri
                0x0000000000014ea5                coap_remove_observer_by_mid
                0x0000000000014f21                coap_notify_observers
                0x0000000000014f3a                coap_notify_observers_sub
                0x00000000000153a4                coap_observe_handler
                0x00000000000154bf                coap_has_observers
 .text          0x0000000000015528      0x733 build/cooja/mtype816.a(coap-uip.o)
                0x0000000000015528                coap_endpoint_log
                0x00000000000155ae                coap_endpoint_print
                0x0000000000015634                coap_endpoint_snprint
                0x0000000000015767                coap_endpoint_copy
                0x00000000000157a4                coap_endpoint_cmp
                0x00000000000158b2                coap_endpoint_parse
                0x0000000000015a9d                coap_endpoint_is_secure
                0x0000000000015aac                coap_endpoint_is_connected
                0x0000000000015ae0                coap_endpoint_connect
                0x0000000000015afc                coap_endpoint_disconnect
                0x0000000000015b02                coap_databuf
                0x0000000000015b0c                coap_transport_init
                0x0000000000015b5c                coap_sendto
 .text          0x0000000000015c5b      0x324 build/cooja/mtype816.a(coap-timer.o)
                0x0000000000015d58                coap_timer_stop
                0x0000000000015d83                coap_timer_set
                0x0000000000015dc6                coap_timer_reset
                0x0000000000015e09                coap_timer_time_to_next_expiration
                0x0000000000015e75                coap_timer_run
                0x0000000000015f41                coap_timer_init
 .text          0x0000000000015f7f      0x2c6 build/cooja/mtype816.a(coap-transactio)
                0x0000000000015fe5                coap_new_transaction
                0x000000000001604b                coap_send_transaction
                0x00000000000161ac                coap_clear_transaction
                0x00000000000161f4                coap_get_transaction_by_mid
 .text          0x0000000000016245     0x1c53 build/cooja/mtype816.a(coap.o)
                0x00000000000167b2                coap_init_connection
                0x00000000000167c6                coap_get_mid
                0x00000000000167e2                coap_init_message
                0x000000000001682b                coap_serialize_message
                0x0000000000016ead                coap_parse_message
                0x0000000000017514                coap_get_query_variable
                0x0000000000017556                coap_get_post_variable
                0x000000000001759a                coap_set_status_code
                0x00000000000175bf                coap_set_token
                0x0000000000017606                coap_get_header_content_format
                0x0000000000017637                coap_set_header_content_format
                0x000000000001765a                coap_get_header_accept
                0x000000000001768b                coap_set_header_accept
                0x00000000000176ae                coap_get_header_max_age
                0x00000000000176df                coap_set_header_max_age
                0x00000000000176ff                coap_get_header_etag
                0x0000000000017731                coap_set_header_etag
                0x0000000000017788                coap_get_header_if_match
                0x00000000000177ba                coap_set_header_if_match
                0x0000000000017811                coap_get_header_if_none_match
                0x000000000001782b                coap_set_header_if_none_match
                0x0000000000017842                coap_get_header_proxy_uri
                0x0000000000017870                coap_set_header_proxy_uri
                0x00000000000178ad                coap_get_header_uri_host
                0x00000000000178db                coap_set_header_uri_host
                0x0000000000017918                coap_get_header_uri_path
                0x0000000000017946                coap_set_header_uri_path
                0x0000000000017993                coap_get_header_uri_query
                0x00000000000179c7                coap_set_header_uri_query
                0x0000000000017a1d                coap_get_header_location_path
                0x0000000000017a4b                coap_set_header_location_path
                0x0000000000017ae4                coap_get_header_location_query
                0x0000000000017b12                coap_set_header_location_query
                0x0000000000017b5f                coap_get_header_observe
                0x0000000000017b8e                coap_set_header_observe
                0x0000000000017bae                coap_get_header_block2
                0x0000000000017c1a                coap_set_header_block2
                0x0000000000017c91                coap_get_header_block1
                0x0000000000017d06                coap_set_header_block1
                0x0000000000017d81                coap_get_header_size2
                0x0000000000017db1                coap_set_header_size2
                0x0000000000017dd4                coap_get_header_size1
                0x0000000000017e04                coap_set_header_size1
                0x0000000000017e27                coap_get_payload
                0x0000000000017e61                coap_set_payload
 .text          0x0000000000017e98      0x332 build/cooja/mtype816.a(contiki-main.o)
                0x0000000000017e98                main
 .text          0x00000000000181ca       0x92 build/cooja/mtype816.a(autostart.o)
                0x00000000000181ca                autostart_start
                0x0000000000018214                autostart_exit
 .text          0x000000000001825c      0x355 build/cooja/mtype816.a(ctimer.o)
                0x0000000000018384                ctimer_init
                0x00000000000183b7                ctimer_set
                0x00000000000183dd                ctimer_set_with_process
                0x000000000001845a                ctimer_reset
                0x00000000000184ae                ctimer_restart
                0x0000000000018502                ctimer_stop
                0x0000000000018552                ctimer_expired
 .text          0x00000000000185b1      0x394 build/cooja/mtype816.a(log.o)
                0x00000000000185b1                log_6addr
                0x0000000000018604                log_6addr_compact_snprint
                0x00000000000186a2                log_6addr_compact
                0x00000000000186f5                log_lladdr
                0x0000000000018767                log_lladdr_compact
                0x00000000000187cf                log_set_level
                0x000000000001888a                log_get_level
                0x0000000000018903                log_level_to_str
 .text          0x0000000000018945       0x1b build/cooja/mtype816.a(energest.o)
                0x0000000000018945                energest_init
                0x000000000001894b                energest_flush
                0x0000000000018951                energest_get_total_time
 .text          0x0000000000018960      0x43f build/cooja/mtype816.a(etimer.o)
                0x0000000000018b84                etimer_request_poll
                0x0000000000018c0d                etimer_set
                0x0000000000018c36                etimer_reset_with_new_interval
                0x0000000000018c65                etimer_reset
                0x0000000000018c8b                etimer_restart
                0x0000000000018cb1                etimer_adjust
                0x0000000000018cce                etimer_expired
                0x0000000000018ce1                etimer_expiration_time
                0x0000000000018cf3                etimer_start_time
                0x0000000000018cfd                etimer_pending
                0x0000000000018d0f                etimer_next_expiration_time
                0x0000000000018d29                etimer_stop
 .text          0x0000000000018d9f       0x25 build/cooja/mtype816.a(node-id.o)
                0x0000000000018d9f                node_id_init
 .text          0x0000000000018dc4       0xeb build/cooja/mtype816.a(rtimer.o)
                0x0000000000018dc4                rtimer_init
                0x0000000000018dd2                rtimer_set
                0x0000000000018e4d                rtimer_run_next
 .text          0x0000000000018eaf      0x4fb build/cooja/mtype816.a(process.o)
                0x0000000000018eaf                process_alloc_event
                0x0000000000018ec4                process_start
                0x000000000001909e                process_exit
                0x00000000000190bb                process_init
                0x0000000000019250                process_run
                0x0000000000019283                process_nevents
                0x000000000001929e                process_post
                0x0000000000019331                process_post_synch
                0x0000000000019366                process_poll
                0x0000000000019396                process_is_running
 .text          0x00000000000193aa       0xb1 build/cooja/mtype816.a(timer.o)
                0x00000000000193aa                timer_set
                0x00000000000193c8                timer_reset
                0x00000000000193f5                timer_restart
                0x000000000001940a                timer_expired
                0x0000000000019437                timer_remaining
 .text          0x000000000001945b      0x28f build/cooja/mtype816.a(list.o)
                0x000000000001945b                list_init
                0x000000000001946a                list_head
                0x0000000000019474                list_copy
                0x0000000000019484                list_tail
                0x00000000000194ba                list_add
                0x0000000000019506                list_push
                0x0000000000019532                list_chop
                0x000000000001959c                list_pop
                0x00000000000195c4                list_remove
                0x000000000001962c                list_length
                0x000000000001965a                list_insert
                0x000000000001969f                list_item_next
                0x00000000000196b6                list_contains
 .text          0x00000000000196ea      0x1b5 build/cooja/mtype816.a(memb.o)
                0x00000000000196ea                memb_init
                0x000000000001973f                memb_alloc
                0x00000000000197a2                memb_free
                0x0000000000019819                memb_inmemb
                0x0000000000019858                memb_numfree
 .text          0x000000000001989f      0x41c build/cooja/mtype816.a(button-hal.o)
                0x0000000000019a18                button_hal_get_by_id
                0x0000000000019a56                button_hal_get_by_index
                0x0000000000019a82                button_hal_get_state
                0x0000000000019ad4                button_hal_init
 .text          0x0000000000019cbb      0x1f3 build/cooja/mtype816.a(serial-line.o)
                0x0000000000019cbb                serial_line_input_byte
                0x0000000000019e79                serial_line_init
 .text          0x0000000000019eae      0x168 build/cooja/mtype816.a(gpio-hal.o)
                0x0000000000019eae                gpio_hal_register_handler
                0x0000000000019ecb                gpio_hal_event_handler
                0x0000000000019f27                gpio_hal_init
                0x0000000000019f46                gpio_hal_arch_port_toggle_pin
                0x0000000000019f82                gpio_hal_arch_port_toggle_pins
                0x0000000000019fb0                gpio_hal_arch_no_port_toggle_pin
                0x0000000000019fee                gpio_hal_arch_no_port_toggle_pins
 .text          0x000000000001a016      0x2e7 build/cooja/mtype816.a(queuebuf.o)
                0x000000000001a020                queuebuf_init
                0x000000000001a049                queuebuf_numfree
                0x000000000001a061                queuebuf_new_from_packetbuf
                0x000000000001a100                queuebuf_update_attr_from_packetbuf
                0x000000000001a135                queuebuf_update_from_packetbuf
                0x000000000001a185                queuebuf_free
                0x000000000001a1ce                queuebuf_to_packetbuf
                0x000000000001a23a                queuebuf_dataptr
                0x000000000001a274                queuebuf_datalen
                0x000000000001a297                queuebuf_addr
                0x000000000001a2cc                queuebuf_attr
                0x000000000001a2f7                queuebuf_debug_print
 .text          0x000000000001a2fd      0x407 build/cooja/mtype816.a(packetbuf.o)
                0x000000000001a2fd                packetbuf_clear
                0x000000000001a328                packetbuf_copyfrom
                0x000000000001a377                packetbuf_copyto
                0x000000000001a40a                packetbuf_hdralloc
                0x000000000001a486                packetbuf_hdrreduce
                0x000000000001a4cc                packetbuf_set_datalen
                0x000000000001a4e6                packetbuf_dataptr
                0x000000000001a503                packetbuf_hdrptr
                0x000000000001a50d                packetbuf_datalen
                0x000000000001a519                packetbuf_hdrlen
                0x000000000001a530                packetbuf_totlen
                0x000000000001a546                packetbuf_remaininglen
                0x000000000001a559                packetbuf_attr_clear
                0x000000000001a5a5                packetbuf_attr_copyto
                0x000000000001a5fd                packetbuf_attr_copyfrom
                0x000000000001a655                packetbuf_set_attr
                0x000000000001a67f                packetbuf_attr
                0x000000000001a699                packetbuf_set_addr
                0x000000000001a6ca                packetbuf_addr
                0x000000000001a6e7                packetbuf_holds_broadcast
 .text          0x000000000001a704       0xef build/cooja/mtype816.a(netstack.o)
                0x000000000001a704                netstack_process_ip_callback
                0x000000000001a795                netstack_ip_packet_processor_add
                0x000000000001a7b8                uip_ds6_ip_packet_processor_rm
                0x000000000001a7d5                netstack_init
 .text          0x000000000001a7f3       0x4f build/cooja/mtype816.a(linkaddr.o)
                0x000000000001a7f3                linkaddr_copy
                0x000000000001a809                linkaddr_cmp
                0x000000000001a82c                linkaddr_set_node_addr
 .text          0x000000000001a842      0x1f6 build/cooja/mtype816.a(csma.o)
 .text          0x000000000001aa38      0x95d build/cooja/mtype816.a(csma-output.o)
                0x000000000001b0cf                csma_output_packet
                0x000000000001b35c                csma_output_init
 .text          0x000000000001b395      0xc11 build/cooja/mtype816.a(uip-ds6.o)
                0x000000000001b395                uip_ds6_default_prefix
                0x000000000001b39f                uip_ds6_set_default_prefix
                0x000000000001b3ca                uip_ds6_init
                0x000000000001b62c                uip_ds6_periodic
                0x000000000001b6b3                uip_ds6_list_loop
                0x000000000001b773                uip_ds6_prefix_add
                0x000000000001b81f                uip_ds6_prefix_rm
                0x000000000001b832                uip_ds6_prefix_lookup
                0x000000000001b871                uip_ds6_is_addr_onlink
                0x000000000001b8e4                uip_ds6_addr_add
                0x000000000001ba04                uip_ds6_addr_rm
                0x000000000001baad                uip_ds6_addr_lookup
                0x000000000001bae6                uip_ds6_get_link_local
                0x000000000001bb67                uip_ds6_get_global
                0x000000000001bbe8                uip_ds6_maddr_add
                0x000000000001bc48                uip_ds6_maddr_rm
                0x000000000001bc5b                uip_ds6_maddr_lookup
                0x000000000001bc94                uip_ds6_aaddr_add
                0x000000000001bcf4                uip_ds6_aaddr_rm
                0x000000000001bd07                uip_ds6_aaddr_lookup
                0x000000000001bd40                uip_ds6_select_src
                0x000000000001be89                uip_ds6_set_addr_iid
                0x000000000001beb4                uip_ds6_set_lladdr_from_iid
                0x000000000001bedd                get_match_length
                0x000000000001bf6e                uip_ds6_compute_reachable_time
 .text          0x000000000001bfa6      0x128 build/cooja/mtype816.a(uip-udp-packet.)
                0x000000000001bfa6                uip_udp_packet_send
                0x000000000001c001                uip_udp_packet_sendto
 .text          0x000000000001c0ce      0x35b build/cooja/mtype816.a(uip-ds6-route.o)
                0x000000000001c11f                uip_ds6_route_init
                0x000000000001c149                uip_ds6_route_nexthop
                0x000000000001c153                uip_ds6_route_head
                0x000000000001c15d                uip_ds6_route_next
                0x000000000001c167                uip_ds6_route_is_nexthop
                0x000000000001c171                uip_ds6_route_num_routes
                0x000000000001c17b                uip_ds6_route_lookup
                0x000000000001c185                uip_ds6_route_add
                0x000000000001c198                uip_ds6_route_rm
                0x000000000001c19e                uip_ds6_route_rm_by_nexthop
                0x000000000001c1a4                uip_ds6_defrt_head
                0x000000000001c1bd                uip_ds6_defrt_add
                0x000000000001c26b                uip_ds6_defrt_rm
                0x000000000001c2d1                uip_ds6_defrt_lookup
                0x000000000001c338                uip_ds6_defrt_choose
                0x000000000001c3ae                uip_ds6_defrt_periodic
 .text          0x000000000001c429      0x6f7 build/cooja/mtype816.a(tcpip.o)
                0x000000000001c443                tcpip_output
                0x000000000001c4c2                udp_attach
                0x000000000001c4da                udp_new
                0x000000000001c524                udp_broadcast_new
                0x000000000001c696                tcpip_input
                0x000000000001c826                tcpip_ipv6_output
                0x000000000001ca1a                tcpip_poll_udp
                0x000000000001ca38                tcpip_uipcall
 .text          0x000000000001cb20     0x1205 build/cooja/mtype816.a(uip6.o)
                0x000000000001cbcf                uip_chksum
                0x000000000001cca6                uip_icmp6chksum
                0x000000000001ccbb                uip_udpchksum
                0x000000000001ccd0                uip_init
                0x000000000001cd19                uip_remove_ext_hdr
                0x000000000001cdf3                uip_udp_new
                0x000000000001d107                uip_process
                0x000000000001dbff                uip_htons
                0x000000000001dc21                uip_htonl
                0x000000000001dc5f                uip_send
 .text          0x000000000001dd25      0x369 build/cooja/mtype816.a(uip-ds6-nbr.o)
                0x000000000001dd25                uip_ds6_neighbors_init
                0x000000000001dd49                uip_ds6_nbr_add
                0x000000000001ddcf                uip_ds6_nbr_rm
                0x000000000001de1a                uip_ds6_nbr_update_ll
                0x000000000001df08                uip_ds6_nbr_get_ipaddr
                0x000000000001df1d                uip_ds6_nbr_get_ll
                0x000000000001df39                uip_ds6_nbr_num
                0x000000000001df82                uip_ds6_nbr_head
                0x000000000001df9b                uip_ds6_nbr_next
                0x000000000001dfb7                uip_ds6_nbr_lookup
                0x000000000001e00f                uip_ds6_nbr_ll_lookup
                0x000000000001e02b                uip_ds6_nbr_ipaddr_from_lladdr
                0x000000000001e054                uip_ds6_nbr_lladdr_from_ipaddr
                0x000000000001e088                uip_ds6_link_callback
 .text          0x000000000001e08e      0x6a7 build/cooja/mtype816.a(uip-nd6.o)
                0x000000000001e71c                uip_nd6_init
 .text          0x000000000001e735     0x2c17 build/cooja/mtype816.a(sicslowpan.o)
                0x000000000001ed3c                netstack_sniffer_add
                0x000000000001ed4a                netstack_sniffer_remove
                0x0000000000021320                sicslowpan_init
                0x0000000000021342                sicslowpan_get_last_rssi
 .text          0x000000000002134c      0x4d1 build/cooja/mtype816.a(uiplib.o)
                0x000000000002134c                uiplib_ip6addrconv
                0x0000000000021504                uiplib_ip4addrconv
                0x00000000000215c7                uiplib_ipaddr_print
                0x000000000002161a                uiplib_ipaddr_snprint
 .text          0x000000000002181d      0x4c9 build/cooja/mtype816.a(rpl.o)
                0x000000000002181d                rpl_lollipop_greater_than
                0x0000000000021877                rpl_get_global_address
                0x000000000002196f                rpl_link_callback
                0x00000000000219b3                rpl_has_joined
                0x00000000000219d8                rpl_is_reachable
                0x0000000000021a59                rpl_reset_prefix
                0x0000000000021ac3                rpl_set_prefix_from_addr
                0x0000000000021ba8                rpl_set_prefix
                0x0000000000021cc2                rpl_set_leaf_only
                0x0000000000021cda                rpl_get_leaf_only
 .text          0x0000000000021ce6     0x138c build/cooja/mtype816.a(rpl-icmp6.o)
                0x0000000000021e0b                rpl_icmp6_update_nbr_table
                0x0000000000021e94                rpl_icmp6_dis_output
                0x00000000000224da                rpl_icmp6_dio_output
                0x0000000000022cd8                rpl_icmp6_dao_output
                0x0000000000022fb9                rpl_icmp6_dao_ack_output
                0x0000000000023029                rpl_icmp6_init
 .text          0x0000000000023072      0x264 build/cooja/mtype816.a(rpl-dag-root.o)
                0x0000000000023072                rpl_dag_root_print_links
                0x000000000002319e                rpl_dag_root_set_prefix
                0x00000000000231ca                rpl_dag_root_start
                0x00000000000232a7                rpl_dag_root_is_root
 .text          0x00000000000232d6       0x30 build/cooja/mtype816.a(watchdog.o)
                0x00000000000232d6                watchdog_init
                0x00000000000232dc                watchdog_start
                0x00000000000232e2                watchdog_periodic
                0x00000000000232fa                watchdog_stop
                0x0000000000023300                watchdog_reboot
 .text          0x0000000000023306       0x4a build/cooja/mtype816.a(int-master.o)
                0x0000000000023306                int_master_enable
                0x0000000000023316                int_master_read_and_disable
                0x0000000000023333                int_master_status_set
                0x0000000000023341                int_master_is_enabled
 .text          0x0000000000023350      0x6ee build/cooja/mtype816.a(coap-observe-cl)
                0x00000000000233ee                coap_obs_add_observee
                0x000000000002348a                coap_obs_remove_observee
                0x00000000000234ba                coap_get_obs_subject_by_token
                0x0000000000023522                coap_obs_remove_observee_by_token
                0x00000000000235b5                coap_obs_remove_observee_by_url
                0x000000000002370d                coap_handle_notification
                0x0000000000023868                coap_generate_token
                0x000000000002388a                coap_obs_request_registration
 .text          0x0000000000023a3e      0x226 build/cooja/mtype816.a(coap-timer-defa)
 .text          0x0000000000023c64       0xc7 build/cooja/mtype816.a(stimer.o)
                0x0000000000023c64                stimer_set
                0x0000000000023c82                stimer_reset
                0x0000000000023caf                stimer_restart
                0x0000000000023cc4                stimer_expired
                0x0000000000023cef                stimer_remaining
                0x0000000000023d13                stimer_elapsed
 .text          0x0000000000023d2b      0x156 build/cooja/mtype816.a(ringbuf.o)
                0x0000000000023d2b                ringbuf_init
                0x0000000000023d5d                ringbuf_put
                0x0000000000023ddb                ringbuf_get
                0x0000000000023e48                ringbuf_size
                0x0000000000023e5a                ringbuf_elements
 .text          0x0000000000023e81       0x1f build/cooja/mtype816.a(assert.o)
                0x0000000000023e81                _xassert
 .text          0x0000000000023ea0      0x79b build/cooja/mtype816.a(nbr-table.o)
                0x0000000000024319                nbr_table_register
                0x0000000000024386                nbr_table_is_registered
                0x00000000000243c1                nbr_table_head
                0x000000000002441c                nbr_table_next
                0x000000000002447d                nbr_table_add_lladdr
                0x0000000000024557                nbr_table_get_from_lladdr
                0x00000000000245a3                nbr_table_remove
                0x00000000000245db                nbr_table_lock
                0x00000000000245f5                nbr_table_unlock
                0x000000000002460f                nbr_table_get_lladdr
 .text          0x000000000002463b      0x3a5 build/cooja/mtype816.a(link-stats.o)
                0x000000000002463b                link_stats_from_lladdr
                0x0000000000024657                link_stats_get_lladdr
                0x0000000000024673                link_stats_is_fresh
                0x00000000000246af                guess_etx_from_rssi
                0x000000000002472b                link_stats_packet_sent
                0x000000000002484b                link_stats_input_callback
                0x000000000002495b                link_stats_reset
                0x00000000000249ab                link_stats_init
 .text          0x00000000000249e0      0x187 build/cooja/mtype816.a(mac-sequence.o)
                0x00000000000249e0                mac_sequence_is_duplicate
                0x0000000000024a80                mac_sequence_register_seqno
 .text          0x0000000000024b67       0x23 build/cooja/mtype816.a(mac.o)
                0x0000000000024b67                mac_call_sent_callback
 .text          0x0000000000024b8a      0x432 build/cooja/mtype816.a(framer-802154.o)
                0x0000000000024d19                framer_802154_setup_params
 .text          0x0000000000024fbc      0xb6f build/cooja/mtype816.a(frame802154.o)
                0x0000000000024fed                frame802154_get_pan_id
                0x0000000000024ff9                frame802154_set_pan_id
                0x0000000000025013                frame802154_has_panid
                0x00000000000251c2                frame802154_check_dest_panid
                0x000000000002524a                frame802154_is_broadcast_addr
                0x0000000000025297                frame802154_extract_linkaddr
                0x00000000000254fc                frame802154_hdrlen
                0x000000000002556f                frame802154_create_fcf
                0x0000000000025627                frame802154_create
                0x000000000002579c                frame802154_parse_fcf
                0x000000000002587e                frame802154_parse
 .text          0x0000000000025b2b       0x2d build/cooja/mtype816.a(csma-security.o)
                0x0000000000025b2b                csma_security_create_frame
                0x0000000000025b49                csma_security_parse_frame
 .text          0x0000000000025b58      0x4e4 build/cooja/mtype816.a(uipbuf.o)
                0x0000000000025b58                uipbuf_clear
                0x0000000000025b7f                uipbuf_add_ext_hdr
                0x0000000000025bff                uipbuf_set_len
                0x0000000000025c2c                uipbuf_set_len_field
                0x0000000000025c58                uipbuf_get_len_field
                0x0000000000025c78                uipbuf_get_next_header
                0x0000000000025daa                uipbuf_get_last_header
                0x0000000000025e23                uipbuf_search_header
                0x0000000000025ed9                uipbuf_get_attr
                0x0000000000025f00                uipbuf_set_attr
                0x0000000000025f37                uipbuf_set_default_attr
                0x0000000000025f6e                uipbuf_clear_attr
                0x0000000000025f92                uipbuf_set_attr_flag
                0x0000000000025fb3                uipbuf_clr_attr_flag
                0x0000000000025fda                uipbuf_is_attr_flag
                0x0000000000025ffe                uipbuf_init
 .text          0x000000000002603c      0x73f build/cooja/mtype816.a(uip-icmp6.o)
                0x00000000000260b1                uip_icmp6_input
                0x0000000000026108                uip_icmp6_register_input_handler
                0x000000000002625b                uip_icmp6_error_output
                0x000000000002650c                uip_icmp6_send
                0x0000000000026703                uip_icmp6_echo_reply_callback_add
                0x0000000000026735                uip_icmp6_echo_reply_callback_rm
                0x0000000000026752                uip_icmp6_init
 .text          0x000000000002677b      0x69b build/cooja/mtype816.a(uip-sr.o)
                0x000000000002677b                uip_sr_num_nodes
                0x0000000000026809                uip_sr_get_node
                0x0000000000026860                uip_sr_is_addr_reachable
                0x000000000002690e                uip_sr_expire_parent
                0x0000000000026957                uip_sr_update_node
                0x0000000000026a87                uip_sr_init
                0x0000000000026abb                uip_sr_node_head
                0x0000000000026ad4                uip_sr_node_next
                0x0000000000026aea                uip_sr_periodic
                0x0000000000026bf0                uip_sr_free_all
                0x0000000000026c60                uip_sr_link_snprint
 .text          0x0000000000026e16      0x146 build/cooja/mtype816.a(uip-packetqueue)
                0x0000000000026e44                uip_packetqueue_new
                0x0000000000026e53                uip_packetqueue_alloc
                0x0000000000026eae                uip_packetqueue_free
                0x0000000000026ef5                uip_packetqueue_buf
                0x0000000000026f12                uip_packetqueue_buflen
                0x0000000000026f33                uip_packetqueue_set_buflen
 .text          0x0000000000026f5c      0x1b0 build/cooja/mtype816.a(rpl-nbr-policy.)
                0x00000000000270c9                rpl_nbr_policy_find_removable
 .text          0x000000000002710c      0x915 build/cooja/mtype816.a(rpl-neighbor.o)
                0x0000000000027188                rpl_neighbor_snprint
                0x000000000002743b                rpl_neighbor_print_list
                0x00000000000274f0                rpl_neighbor_count
                0x0000000000027597                rpl_neighbor_get_from_lladdr
                0x00000000000275b3                rpl_neighbor_is_acceptable_parent
                0x00000000000275e7                rpl_neighbor_get_link_metric
                0x000000000002761b                rpl_neighbor_rank_via_nbr
                0x000000000002764f                rpl_neighbor_get_lladdr
                0x000000000002766b                rpl_neighbor_get_ipaddr
                0x0000000000027692                rpl_neighbor_get_link_stats
                0x00000000000276b9                rpl_neighbor_is_fresh
                0x00000000000276e0                rpl_neighbor_is_reachable
                0x000000000002772b                rpl_neighbor_is_parent
                0x0000000000027755                rpl_neighbor_set_preferred_parent
                0x00000000000277ec                rpl_neighbor_remove_all
                0x0000000000027848                rpl_neighbor_get_from_ipaddr
                0x0000000000027956                rpl_neighbor_select_best
                0x0000000000027a02                rpl_neighbor_init
 .text          0x0000000000027a21      0xe69 build/cooja/mtype816.a(rpl-dag.o)
                0x0000000000027a21                rpl_dag_state_to_str
                0x0000000000027a60                rpl_dag_get_root_ipaddr
                0x0000000000027aa8                rpl_dag_leave
                0x0000000000027b31                rpl_dag_poison_and_leave
                0x0000000000027b49                rpl_dag_periodic
                0x0000000000027bd1                rpl_is_addr_in_our_dag
                0x0000000000027c15                rpl_get_default_instance
                0x0000000000027c31                rpl_get_any_dag
                0x0000000000027c8a                rpl_refresh_routes
                0x0000000000027cca                rpl_global_repair
                0x0000000000027d63                rpl_local_repair
                0x0000000000027dad                rpl_dag_ready_to_advertise
                0x0000000000027df0                rpl_dag_update_state
                0x000000000002851d                rpl_process_dio
                0x000000000002859b                rpl_process_dis
                0x00000000000285e0                rpl_process_dao
                0x000000000002866f                rpl_process_dao_ack
                0x0000000000028706                rpl_process_hbh
                0x0000000000028756                rpl_dag_init_root
                0x000000000002886a                rpl_dag_init
 .text          0x000000000002888a      0x9e7 build/cooja/mtype816.a(rpl-timers.o)
                0x000000000002888a                rpl_timers_schedule_periodic_dis
                0x00000000000289d8                rpl_timers_dio_reset
                0x0000000000028ae6                rpl_timers_schedule_unicast_dio
                0x0000000000028c3a                rpl_timers_schedule_dao
                0x0000000000028cf9                rpl_timers_schedule_dao_ack
                0x0000000000028d7f                rpl_timers_notify_dao_ack
                0x0000000000028ddd                get_probing_delay
                0x0000000000028e11                get_probing_target
                0x0000000000028ffb                rpl_schedule_probing
                0x0000000000029029                rpl_schedule_probing_now
                0x0000000000029093                rpl_timers_unschedule_leaving
                0x00000000000290cb                rpl_timers_schedule_leaving
                0x000000000002910c                rpl_timers_init
                0x000000000002919c                rpl_timers_stop_dag_timers
                0x0000000000029215                rpl_timers_unschedule_state_update
                0x0000000000029239                rpl_timers_schedule_state_update
 .text          0x0000000000029271      0xb8e build/cooja/mtype816.a(rpl-ext-header.)
                0x0000000000029271                rpl_ext_header_srh_get_next_hop
                0x0000000000029358                rpl_ext_header_srh_update
                0x00000000000298c4                rpl_ext_header_hbh_update
                0x0000000000029bc4                rpl_ext_header_update
                0x0000000000029c4d                rpl_ext_header_remove
 .text          0x0000000000029dff      0x31b build/cooja/mtype816.a(rpl-mrhof.o)
 *fill*         0x000000000002a11a        0x6 
 .text          0x000000000002a120      0x122 /usr/lib/gcc/i686-linux-gnu/5/libgcc.a(_udivdi3.o)
                0x000000000002a120                __udivdi3
 .text          0x000000000002a242        0x0 /usr/lib/gcc/i686-linux-gnu/5/crtendS.o
 .text          0x000000000002a242        0x0 /usr/lib/gcc/i686-linux-gnu/5/../../../i386-linux-gnu/crtn.o
 *(.gnu.warning)

.fini           0x000000000002a244       0x14
 *(SORT(.fini))
 .fini          0x000000000002a244        0xf /usr/lib/gcc/i686-linux-gnu/5/../../../i386-linux-gnu/crti.o
                0x000000000002a244                _fini
 .fini          0x000000000002a253        0x5 /usr/lib/gcc/i686-linux-gnu/5/../../../i386-linux-gnu/crtn.o
                [!provide]                        PROVIDE (__etext, .)
                [!provide]                        PROVIDE (_etext, .)
                [!provide]                        PROVIDE (etext, .)

.rodata         0x000000000002a260      0xaab
 *(.rodata .rodata.* .gnu.linkonce.r.*)
 .rodata        0x000000000002a260       0xd9 oxygen_sensor.o
                0x000000000002a2b0                autostart_processes
 *fill*         0x000000000002a339        0x3 
 .rodata        0x000000000002a33c        0x8 build/cooja/mtype816.a(beep.o)
                0x000000000002a33c                beep_interface
 .rodata        0x000000000002a344        0xe build/cooja/mtype816.a(leds-arch.o)
                0x000000000002a344                leds_interface
                0x000000000002a34c                leds_arch_leds
 *fill*         0x000000000002a352        0x2 
 .rodata        0x000000000002a354        0x8 build/cooja/mtype816.a(moteid.o)
                0x000000000002a354                moteid_interface
 .rodata        0x000000000002a35c       0x1c build/cooja/mtype816.a(pir-sensor.o)
                0x000000000002a35c                pir_interface
                0x000000000002a368                pir_sensor
 .rodata        0x000000000002a378        0xe build/cooja/mtype816.a(rs232.o)
                0x000000000002a378                rs232_interface
 *fill*         0x000000000002a386        0x2 
 .rodata        0x000000000002a388       0x24 build/cooja/mtype816.a(vib-sensor.o)
                0x000000000002a388                vib_interface
                0x000000000002a39c                vib_sensor
 .rodata        0x000000000002a3ac        0x8 build/cooja/mtype816.a(clock.o)
                0x000000000002a3ac                clock_interface
 .rodata        0x000000000002a3b4        0x8 build/cooja/mtype816.a(cooja-log.o)
                0x000000000002a3b4                simlog_interface
 .rodata        0x000000000002a3bc       0x2f build/cooja/mtype816.a(cfs-cooja.o)
                0x000000000002a3bc                cfs_interface
 *fill*         0x000000000002a3eb       0x15 
 .rodata        0x000000000002a400       0xb8 build/cooja/mtype816.a(cooja-radio.o)
                0x000000000002a400                radio_interface
                0x000000000002a480                cooja_radio_driver
 .rodata        0x000000000002a4b8        0x8 build/cooja/mtype816.a(eeprom.o)
                0x000000000002a4b8                eeprom_interface
 .rodata        0x000000000002a4c0        0x8 build/cooja/mtype816.a(sensors.o)
 .rodata        0x000000000002a4c8       0x2c build/cooja/mtype816.a(buttons.o)
                0x000000000002a4c8                button_interface
                0x000000000002a4dc                button_hal_button_count
                0x000000000002a4e4                button_sensor
 .rodata        0x000000000002a4f4       0x69 build/cooja/mtype816.a(oxygen_measurin)
 .rodata        0x000000000002a55d       0x41 build/cooja/mtype816.a(coap-engine.o)
 .rodata        0x000000000002a59e       0x19 build/cooja/mtype816.a(coap-res-well-k)
 .rodata        0x000000000002a5b7       0x11 build/cooja/mtype816.a(coap-observe.o)
 .rodata        0x000000000002a5c8       0x35 build/cooja/mtype816.a(coap-uip.o)
 *fill*         0x000000000002a5fd        0x3 
 .rodata        0x000000000002a600      0x1ac build/cooja/mtype816.a(coap.o)
 .rodata        0x000000000002a7ac       0xf4 build/cooja/mtype816.a(contiki-main.o)
 .rodata        0x000000000002a8a0        0xf build/cooja/mtype816.a(ctimer.o)
 *fill*         0x000000000002a8af        0x1 
 .rodata        0x000000000002a8b0       0xc4 build/cooja/mtype816.a(log.o)
 .rodata        0x000000000002a974        0xc build/cooja/mtype816.a(etimer.o)
 .rodata        0x000000000002a980       0x13 build/cooja/mtype816.a(button-hal.o)
 .rodata        0x000000000002a993        0xe build/cooja/mtype816.a(serial-line.o)
 *fill*         0x000000000002a9a1        0x3 
 .rodata        0x000000000002a9a4        0x8 build/cooja/mtype816.a(linkaddr.o)
                0x000000000002a9a4                linkaddr_null
 .rodata        0x000000000002a9ac       0x24 build/cooja/mtype816.a(csma.o)
                0x000000000002a9b4                csma_driver
 .rodata        0x000000000002a9d0       0x24 build/cooja/mtype816.a(csma-output.o)
 .rodata        0x000000000002a9f4       0x4d build/cooja/mtype816.a(uip-ds6-route.o)
 .rodata        0x000000000002aa41        0xd build/cooja/mtype816.a(tcpip.o)
 *fill*         0x000000000002aa4e        0x2 
 .rodata        0x000000000002aa50       0x30 build/cooja/mtype816.a(sicslowpan.o)
                0x000000000002aa50                unc_llconf
                0x000000000002aa54                unc_ctxconf
                0x000000000002aa58                unc_mxconf
                0x000000000002aa5c                llprefix
                0x000000000002aa70                sicslowpan_driver
 .rodata        0x000000000002aa80       0x2d build/cooja/mtype816.a(uiplib.o)
 *fill*         0x000000000002aaad       0x13 
 .rodata        0x000000000002aac0       0x74 build/cooja/mtype816.a(rpl.o)
                0x000000000002aae0                rpl_lite_driver
 .rodata        0x000000000002ab34       0x20 build/cooja/mtype816.a(coap-timer-defa)
                0x000000000002ab48                coap_timer_default_driver
 .rodata        0x000000000002ab54       0x25 build/cooja/mtype816.a(assert.o)
 *fill*         0x000000000002ab79        0x3 
 .rodata        0x000000000002ab7c        0xc build/cooja/mtype816.a(framer-802154.o)
                0x000000000002ab7c                framer_802154
 .rodata        0x000000000002ab88       0x44 build/cooja/mtype816.a(uip-sr.o)
 .rodata        0x000000000002abcc       0x58 build/cooja/mtype816.a(rpl-neighbor.o)
 .rodata        0x000000000002ac24       0xdb build/cooja/mtype816.a(rpl-dag.o)
 .rodata        0x000000000002acff        0xc build/cooja/mtype816.a(rpl-timers.o)

.rodata1
 *(.rodata1)

.eh_frame_hdr   0x000000000002ad0c     0x1a4c
 *(.eh_frame_hdr)
 .eh_frame_hdr  0x000000000002ad0c     0x1a4c oxygen_sensor.o
                0x000000000002ad0c                __GNU_EH_FRAME_HDR
 *(.eh_frame_entry .eh_frame_entry.*)

.eh_frame       0x000000000002c758     0x6aac
 *(.eh_frame)
 .eh_frame      0x000000000002c758       0x3c /usr/lib/gcc/i686-linux-gnu/5/../../../i386-linux-gnu/crti.o
                                         0x40 (size before relaxing)
 .eh_frame      0x000000000002c794       0x40 oxygen_sensor.o
                                         0x58 (size before relaxing)
 .eh_frame      0x000000000002c7d4      0x178 build/cooja/mtype816.o
                                        0x190 (size before relaxing)
 .eh_frame      0x000000000002c94c       0x40 build/cooja/mtype816.a(simEnvChange.o)
                                         0x58 (size before relaxing)
 .eh_frame      0x000000000002c98c       0x60 build/cooja/mtype816.a(cooja_mt.o)
                                         0x78 (size before relaxing)
 .eh_frame      0x000000000002c9ec       0x80 build/cooja/mtype816.a(cooja_mtarch.o)
                                         0x98 (size before relaxing)
 .eh_frame      0x000000000002ca6c       0xc8 build/cooja/mtype816.a(rtimer-arch.o)
                                         0xe0 (size before relaxing)
 .eh_frame      0x000000000002cb34      0x160 build/cooja/mtype816.a(beep.o)
                                        0x178 (size before relaxing)
 .eh_frame      0x000000000002cc94       0x80 build/cooja/mtype816.a(leds-arch.o)
                                         0x98 (size before relaxing)
 .eh_frame      0x000000000002cd14       0x40 build/cooja/mtype816.a(moteid.o)
                                         0x58 (size before relaxing)
 .eh_frame      0x000000000002cd54       0xa0 build/cooja/mtype816.a(pir-sensor.o)
                                         0xb8 (size before relaxing)
 .eh_frame      0x000000000002cdf4      0x100 build/cooja/mtype816.a(rs232.o)
                                        0x118 (size before relaxing)
 .eh_frame      0x000000000002cef4       0xa0 build/cooja/mtype816.a(vib-sensor.o)
                                         0xb8 (size before relaxing)
 .eh_frame      0x000000000002cf94       0xc0 build/cooja/mtype816.a(clock.o)
                                         0xd8 (size before relaxing)
 .eh_frame      0x000000000002d054      0x120 build/cooja/mtype816.a(cooja-log.o)
                                        0x138 (size before relaxing)
 .eh_frame      0x000000000002d174      0x160 build/cooja/mtype816.a(cfs-cooja.o)
                                        0x178 (size before relaxing)
 .eh_frame      0x000000000002d2d4      0x340 build/cooja/mtype816.a(cooja-radio.o)
                                        0x358 (size before relaxing)
 .eh_frame      0x000000000002d614       0xa0 build/cooja/mtype816.a(eeprom.o)
                                         0xb8 (size before relaxing)
 .eh_frame      0x000000000002d6b4       0x40 build/cooja/mtype816.a(random.o)
                                         0x58 (size before relaxing)
 .eh_frame      0x000000000002d6f4       0xc0 build/cooja/mtype816.a(sensors.o)
                                         0xd8 (size before relaxing)
 .eh_frame      0x000000000002d7b4      0x120 build/cooja/mtype816.a(leds.o)
                                        0x138 (size before relaxing)
 .eh_frame      0x000000000002d8d4      0x220 build/cooja/mtype816.a(gpio-hal-arch.o)
                                        0x238 (size before relaxing)
 .eh_frame      0x000000000002daf4       0xa0 build/cooja/mtype816.a(buttons.o)
                                         0xb8 (size before relaxing)
 .eh_frame      0x000000000002db94       0x60 build/cooja/mtype816.a(oxygen_measurin)
                                         0x78 (size before relaxing)
 .eh_frame      0x000000000002dbf4       0x44 build/cooja/mtype816.a(coap-blocking-a)
                                         0x5c (size before relaxing)
 .eh_frame      0x000000000002dc38      0x220 build/cooja/mtype816.a(coap-engine.o)
                                        0x238 (size before relaxing)
 .eh_frame      0x000000000002de58       0x24 build/cooja/mtype816.a(coap-res-well-k)
                                         0x3c (size before relaxing)
 .eh_frame      0x000000000002de7c      0x188 build/cooja/mtype816.a(coap-observe.o)
                                        0x1a0 (size before relaxing)
 .eh_frame      0x000000000002e004      0x250 build/cooja/mtype816.a(coap-uip.o)
                                        0x268 (size before relaxing)
 .eh_frame      0x000000000002e254      0x114 build/cooja/mtype816.a(coap-timer.o)
                                        0x12c (size before relaxing)
 .eh_frame      0x000000000002e368      0x100 build/cooja/mtype816.a(coap-transactio)
                                        0x118 (size before relaxing)
 .eh_frame      0x000000000002e468      0x6ec build/cooja/mtype816.a(coap.o)
                                        0x704 (size before relaxing)
 .eh_frame      0x000000000002eb54       0x30 build/cooja/mtype816.a(contiki-main.o)
                                         0x48 (size before relaxing)
 .eh_frame      0x000000000002eb84       0x40 build/cooja/mtype816.a(autostart.o)
                                         0x58 (size before relaxing)
 .eh_frame      0x000000000002ebc4      0x100 build/cooja/mtype816.a(ctimer.o)
                                        0x118 (size before relaxing)
 .eh_frame      0x000000000002ecc4      0x100 build/cooja/mtype816.a(log.o)
                                        0x118 (size before relaxing)
 .eh_frame      0x000000000002edc4       0x60 build/cooja/mtype816.a(energest.o)
                                         0x78 (size before relaxing)
 .eh_frame      0x000000000002ee24      0x1e0 build/cooja/mtype816.a(etimer.o)
                                        0x1f8 (size before relaxing)
 .eh_frame      0x000000000002f004       0x20 build/cooja/mtype816.a(node-id.o)
                                         0x38 (size before relaxing)
 .eh_frame      0x000000000002f024       0x60 build/cooja/mtype816.a(rtimer.o)
                                         0x78 (size before relaxing)
 .eh_frame      0x000000000002f084      0x1c4 build/cooja/mtype816.a(process.o)
                                        0x1dc (size before relaxing)
 .eh_frame      0x000000000002f248       0xa4 build/cooja/mtype816.a(timer.o)
                                         0xbc (size before relaxing)
 .eh_frame      0x000000000002f2ec      0x1a0 build/cooja/mtype816.a(list.o)
                                        0x1b8 (size before relaxing)
 .eh_frame      0x000000000002f48c       0xa0 build/cooja/mtype816.a(memb.o)
                                         0xb8 (size before relaxing)
 .eh_frame      0x000000000002f52c      0x144 build/cooja/mtype816.a(button-hal.o)
                                        0x15c (size before relaxing)
 .eh_frame      0x000000000002f670       0x60 build/cooja/mtype816.a(serial-line.o)
                                         0x78 (size before relaxing)
 .eh_frame      0x000000000002f6d0       0xe0 build/cooja/mtype816.a(gpio-hal.o)
                                         0xf8 (size before relaxing)
 .eh_frame      0x000000000002f7b0      0x1a0 build/cooja/mtype816.a(queuebuf.o)
                                        0x1b8 (size before relaxing)
 .eh_frame      0x000000000002f950      0x28c build/cooja/mtype816.a(packetbuf.o)
                                        0x2a4 (size before relaxing)
 .eh_frame      0x000000000002fbdc       0x80 build/cooja/mtype816.a(netstack.o)
                                         0x98 (size before relaxing)
 .eh_frame      0x000000000002fc5c       0x60 build/cooja/mtype816.a(linkaddr.o)
                                         0x78 (size before relaxing)
 .eh_frame      0x000000000002fcbc       0xe0 build/cooja/mtype816.a(csma.o)
                                         0xf8 (size before relaxing)
 .eh_frame      0x000000000002fd9c      0x1d0 build/cooja/mtype816.a(csma-output.o)
                                        0x1e8 (size before relaxing)
 .eh_frame      0x000000000002ff6c      0x328 build/cooja/mtype816.a(uip-ds6.o)
                                        0x340 (size before relaxing)
 .eh_frame      0x0000000000030294       0x40 build/cooja/mtype816.a(uip-udp-packet.)
                                         0x58 (size before relaxing)
 .eh_frame      0x00000000000302d4      0x220 build/cooja/mtype816.a(uip-ds6-route.o)
                                        0x238 (size before relaxing)
 .eh_frame      0x00000000000304f4      0x244 build/cooja/mtype816.a(tcpip.o)
                                        0x25c (size before relaxing)
 .eh_frame      0x0000000000030738      0x1e8 build/cooja/mtype816.a(uip6.o)
                                        0x200 (size before relaxing)
 .eh_frame      0x0000000000030920      0x1c0 build/cooja/mtype816.a(uip-ds6-nbr.o)
                                        0x1d8 (size before relaxing)
 .eh_frame      0x0000000000030ae0       0x84 build/cooja/mtype816.a(uip-nd6.o)
                                         0x9c (size before relaxing)
 .eh_frame      0x0000000000030b64      0x2f8 build/cooja/mtype816.a(sicslowpan.o)
                                        0x310 (size before relaxing)
 .eh_frame      0x0000000000030e5c       0x88 build/cooja/mtype816.a(uiplib.o)
                                         0xa0 (size before relaxing)
 .eh_frame      0x0000000000030ee4      0x1e0 build/cooja/mtype816.a(rpl.o)
                                        0x1f8 (size before relaxing)
 .eh_frame      0x00000000000310c4      0x1c4 build/cooja/mtype816.a(rpl-icmp6.o)
                                        0x1dc (size before relaxing)
 .eh_frame      0x0000000000031288       0xa0 build/cooja/mtype816.a(rpl-dag-root.o)
                                         0xb8 (size before relaxing)
 .eh_frame      0x0000000000031328       0xa0 build/cooja/mtype816.a(watchdog.o)
                                         0xb8 (size before relaxing)
 .eh_frame      0x00000000000313c8       0x80 build/cooja/mtype816.a(int-master.o)
                                         0x98 (size before relaxing)
 .eh_frame      0x0000000000031448      0x1c4 build/cooja/mtype816.a(coap-observe-cl)
                                        0x1dc (size before relaxing)
 .eh_frame      0x000000000003160c       0xa4 build/cooja/mtype816.a(coap-timer-defa)
                                         0xbc (size before relaxing)
 .eh_frame      0x00000000000316b0       0xc4 build/cooja/mtype816.a(stimer.o)
                                         0xdc (size before relaxing)
 .eh_frame      0x0000000000031774       0xa0 build/cooja/mtype816.a(ringbuf.o)
                                         0xb8 (size before relaxing)
 .eh_frame      0x0000000000031814       0x20 build/cooja/mtype816.a(assert.o)
                                         0x38 (size before relaxing)
 .eh_frame      0x0000000000031834      0x2ac build/cooja/mtype816.a(nbr-table.o)
                                        0x2c4 (size before relaxing)
 .eh_frame      0x0000000000031ae0      0x120 build/cooja/mtype816.a(link-stats.o)
                                        0x138 (size before relaxing)
 .eh_frame      0x0000000000031c00       0x48 build/cooja/mtype816.a(mac-sequence.o)
                                         0x60 (size before relaxing)
 .eh_frame      0x0000000000031c48       0x20 build/cooja/mtype816.a(mac.o)
                                         0x38 (size before relaxing)
 .eh_frame      0x0000000000031c68       0xa4 build/cooja/mtype816.a(framer-802154.o)
                                         0xbc (size before relaxing)
 .eh_frame      0x0000000000031d0c      0x1a4 build/cooja/mtype816.a(frame802154.o)
                                        0x1bc (size before relaxing)
 .eh_frame      0x0000000000031eb0       0x40 build/cooja/mtype816.a(csma-security.o)
                                         0x58 (size before relaxing)
 .eh_frame      0x0000000000031ef0      0x200 build/cooja/mtype816.a(uipbuf.o)
                                        0x218 (size before relaxing)
 .eh_frame      0x00000000000320f0      0x150 build/cooja/mtype816.a(uip-icmp6.o)
                                        0x168 (size before relaxing)
 .eh_frame      0x0000000000032240      0x184 build/cooja/mtype816.a(uip-sr.o)
                                        0x19c (size before relaxing)
 .eh_frame      0x00000000000323c4       0xe0 build/cooja/mtype816.a(uip-packetqueue)
                                         0xf8 (size before relaxing)
 .eh_frame      0x00000000000324a4       0x80 build/cooja/mtype816.a(rpl-nbr-policy.)
                                         0x98 (size before relaxing)
 .eh_frame      0x0000000000032524      0x2d4 build/cooja/mtype816.a(rpl-neighbor.o)
                                        0x2ec (size before relaxing)
 .eh_frame      0x00000000000327f8      0x370 build/cooja/mtype816.a(rpl-dag.o)
                                        0x388 (size before relaxing)
 .eh_frame      0x0000000000032b68      0x3a8 build/cooja/mtype816.a(rpl-timers.o)
                                        0x3c0 (size before relaxing)
 .eh_frame      0x0000000000032f10      0x124 build/cooja/mtype816.a(rpl-ext-header.)
                                        0x13c (size before relaxing)
 .eh_frame      0x0000000000033034      0x148 build/cooja/mtype816.a(rpl-mrhof.o)
                                        0x160 (size before relaxing)
 .eh_frame      0x000000000003317c       0x84 /usr/lib/gcc/i686-linux-gnu/5/libgcc.a(_udivdi3.o)
                                         0x9c (size before relaxing)
 .eh_frame      0x0000000000033200        0x4 /usr/lib/gcc/i686-linux-gnu/5/crtendS.o
 *(.eh_frame.*)

.gcc_except_table
 *(.gcc_except_table .gcc_except_table.*)

.gnu_extab
 *(.gnu_extab*)

.exception_ranges
 *(.exception_ranges .exception_ranges*)
                0x0000000000034f10                . = DATA_SEGMENT_ALIGN (0x1000, 0x1000)

.eh_frame
 *(.eh_frame)
 *(.eh_frame.*)

.gnu_extab
 *(.gnu_extab)

.gcc_except_table
 *(.gcc_except_table .gcc_except_table.*)

.exception_ranges
 *(.exception_ranges .exception_ranges*)

.tdata
 *(.tdata .tdata.* .gnu.linkonce.td.*)

.tbss
 *(.tbss .tbss.* .gnu.linkonce.tb.*)
 *(.tcommon)

.preinit_array
 *(.preinit_array)

.init_array     0x0000000000034f10        0x4
 *(SORT(.init_array.*) SORT(.ctors.*))
 *(.init_array EXCLUDE_FILE(*crtend?.o *crtend.o *crtbegin?.o *crtbegin.o) .ctors)
 .init_array    0x0000000000034f10        0x4 /usr/lib/gcc/i686-linux-gnu/5/crtbeginS.o

.fini_array     0x0000000000034f14        0x4
 *(SORT(.fini_array.*) SORT(.dtors.*))
 *(.fini_array EXCLUDE_FILE(*crtend?.o *crtend.o *crtbegin?.o *crtbegin.o) .dtors)
 .fini_array    0x0000000000034f14        0x4 /usr/lib/gcc/i686-linux-gnu/5/crtbeginS.o

.ctors
 *crtbegin.o(.ctors)
 *crtbegin?.o(.ctors)
 *(EXCLUDE_FILE(*crtend?.o *crtend.o) .ctors)
 *(SORT(.ctors.*))
 *(.ctors)

.dtors
 *crtbegin.o(.dtors)
 *crtbegin?.o(.dtors)
 *(EXCLUDE_FILE(*crtend?.o *crtend.o) .dtors)
 *(SORT(.dtors.*))
 *(.dtors)

.jcr            0x0000000000034f18        0x4
 *(.jcr)
 .jcr           0x0000000000034f18        0x0 /usr/lib/gcc/i686-linux-gnu/5/crtbeginS.o
 .jcr           0x0000000000034f18        0x4 /usr/lib/gcc/i686-linux-gnu/5/crtendS.o

.data.rel.ro
 *(.data.rel.ro.local* .gnu.linkonce.d.rel.ro.local.*)
 *(.data.rel.ro .data.rel.ro.* .gnu.linkonce.d.rel.ro.*)

.dynamic        0x0000000000034f1c       0xd0
 *(.dynamic)
 .dynamic       0x0000000000034f1c       0xd0 /usr/lib/gcc/i686-linux-gnu/5/../../../i386-linux-gnu/crti.o
                0x0000000000034f1c                _DYNAMIC

.got            0x0000000000034fec       0x14
 *(.got)
 .got           0x0000000000034fec       0x14 /usr/lib/gcc/i686-linux-gnu/5/../../../i386-linux-gnu/crti.o
 *(.igot)
                0x0000000000035ff4                . = DATA_SEGMENT_RELRO_END (., (SIZEOF (.got.plt) >= 0xc)?0xc:0x0)

.got.plt        0x0000000000035000        0xc
 *(.got.plt)
 .got.plt       0x0000000000035000        0xc /usr/lib/gcc/i686-linux-gnu/5/../../../i386-linux-gnu/crti.o
                0x0000000000035000                _GLOBAL_OFFSET_TABLE_
 *(.igot.plt)

.data           0x0000000000035020      0x464
 *(.data .data.* .gnu.linkonce.d.*)
 .data          0x0000000000035020        0x0 /usr/lib/gcc/i686-linux-gnu/5/../../../i386-linux-gnu/crti.o
 .data          0x0000000000035020        0x0 /usr/lib/gcc/i686-linux-gnu/5/crtbeginS.o
 .data.rel.local
                0x0000000000035020        0x4 /usr/lib/gcc/i686-linux-gnu/5/crtbeginS.o
                0x0000000000035020                __dso_handle
 .data          0x0000000000035024       0x10 oxygen_sensor.o
                0x0000000000035024                oxygen_sensor
 *fill*         0x0000000000035034        0xc 
 .data          0x0000000000035040       0x44 build/cooja/mtype816.o
                0x0000000000035040                simInterfaces
                0x0000000000035074                sensors
 .data          0x0000000000035084        0x0 build/cooja/mtype816.a(simEnvChange.o)
 .data          0x0000000000035084        0x0 build/cooja/mtype816.a(cooja_mt.o)
 .data          0x0000000000035084        0x0 build/cooja/mtype816.a(cooja_mtarch.o)
 .data          0x0000000000035084        0x0 build/cooja/mtype816.a(rtimer-arch.o)
 .data          0x0000000000035084        0x0 build/cooja/mtype816.a(beep.o)
 .data          0x0000000000035084        0x0 build/cooja/mtype816.a(leds-arch.o)
 .data          0x0000000000035084        0x0 build/cooja/mtype816.a(moteid.o)
 .data          0x0000000000035084        0x0 build/cooja/mtype816.a(pir-sensor.o)
 .data          0x0000000000035084        0x0 build/cooja/mtype816.a(rs232.o)
 .data          0x0000000000035084        0x0 build/cooja/mtype816.a(vib-sensor.o)
 .data          0x0000000000035084        0x0 build/cooja/mtype816.a(clock.o)
 .data          0x0000000000035084        0x0 build/cooja/mtype816.a(cooja-log.o)
 .data          0x0000000000035084        0x0 build/cooja/mtype816.a(cfs-cooja.o)
 .data          0x0000000000035084       0x2c build/cooja/mtype816.a(cooja-radio.o)
                0x0000000000035084                simRadioHWOn
                0x0000000000035088                simSignalStrength
                0x000000000003508c                simLastSignalStrength
                0x0000000000035090                simPower
                0x0000000000035094                simRadioChannel
                0x0000000000035098                simLQI
                0x00000000000350a0                cooja_radio_process
 .data          0x00000000000350b0        0x0 build/cooja/mtype816.a(eeprom.o)
 .data          0x00000000000350b0        0x0 build/cooja/mtype816.a(random.o)
 .data          0x00000000000350b0       0x10 build/cooja/mtype816.a(sensors.o)
                0x00000000000350b0                sensors_process
 .data          0x00000000000350c0        0x0 build/cooja/mtype816.a(leds.o)
 .data          0x00000000000350c0        0x0 build/cooja/mtype816.a(gpio-hal-arch.o)
 .data          0x00000000000350c0       0x78 build/cooja/mtype816.a(buttons.o)
                0x00000000000350c0                simButtonIsActive
                0x0000000000035130                button_hal_buttons
 *fill*         0x0000000000035138        0x8 
 .data          0x0000000000035140       0x44 build/cooja/mtype816.a(oxygen_measurin)
                0x0000000000035140                oxygen_level
                0x0000000000035160                oxygen_measuring_device
 .data          0x0000000000035184        0x0 build/cooja/mtype816.a(coap-blocking-a)
 .data          0x0000000000035184        0x8 build/cooja/mtype816.a(coap-engine.o)
 *fill*         0x000000000003518c       0x14 
 .data          0x00000000000351a0       0x24 build/cooja/mtype816.a(coap-res-well-k)
                0x00000000000351a0                res_well_known_core
 .data          0x00000000000351c4       0x10 build/cooja/mtype816.a(coap-observe.o)
 .data          0x00000000000351d4       0x10 build/cooja/mtype816.a(coap-uip.o)
                0x00000000000351d4                coap_engine
 .data          0x00000000000351e4        0x4 build/cooja/mtype816.a(coap-timer.o)
 .data          0x00000000000351e8       0x10 build/cooja/mtype816.a(coap-transactio)
 .data          0x00000000000351f8        0x4 build/cooja/mtype816.a(coap.o)
                0x00000000000351f8                coap_error_message
 .data          0x00000000000351fc        0x0 build/cooja/mtype816.a(contiki-main.o)
 .data          0x00000000000351fc        0x0 build/cooja/mtype816.a(autostart.o)
 .data          0x00000000000351fc       0x14 build/cooja/mtype816.a(ctimer.o)
                0x0000000000035200                ctimer_process
 *fill*         0x0000000000035210       0x10 
 .data          0x0000000000035220       0xbc build/cooja/mtype816.a(log.o)
                0x0000000000035220                curr_log_level_main
                0x0000000000035240                all_modules
 .data          0x00000000000352dc        0x0 build/cooja/mtype816.a(energest.o)
 .data          0x00000000000352dc       0x10 build/cooja/mtype816.a(etimer.o)
                0x00000000000352dc                etimer_process
 .data          0x00000000000352ec        0x0 build/cooja/mtype816.a(node-id.o)
 .data          0x00000000000352ec        0x0 build/cooja/mtype816.a(rtimer.o)
 .data          0x00000000000352ec        0x0 build/cooja/mtype816.a(process.o)
 .data          0x00000000000352ec        0x0 build/cooja/mtype816.a(timer.o)
 .data          0x00000000000352ec        0x0 build/cooja/mtype816.a(list.o)
 .data          0x00000000000352ec        0x0 build/cooja/mtype816.a(memb.o)
 .data          0x00000000000352ec       0x10 build/cooja/mtype816.a(button-hal.o)
                0x00000000000352ec                button_hal_process
 .data          0x00000000000352fc       0x10 build/cooja/mtype816.a(serial-line.o)
                0x00000000000352fc                serial_line_process
 .data          0x000000000003530c        0x4 build/cooja/mtype816.a(gpio-hal.o)
 .data          0x0000000000035310       0x18 build/cooja/mtype816.a(queuebuf.o)
 .data          0x0000000000035328        0x4 build/cooja/mtype816.a(packetbuf.o)
 .data          0x000000000003532c        0x4 build/cooja/mtype816.a(netstack.o)
 .data          0x0000000000035330        0x0 build/cooja/mtype816.a(linkaddr.o)
 .data          0x0000000000035330        0x0 build/cooja/mtype816.a(csma.o)
 .data          0x0000000000035330       0x28 build/cooja/mtype816.a(csma-output.o)
 .data          0x0000000000035358        0x0 build/cooja/mtype816.a(uip-ds6.o)
 .data          0x0000000000035358        0x0 build/cooja/mtype816.a(uip-udp-packet.)
 .data          0x0000000000035358       0x10 build/cooja/mtype816.a(uip-ds6-route.o)
 .data          0x0000000000035368       0x10 build/cooja/mtype816.a(tcpip.o)
                0x0000000000035368                tcpip_process
 .data          0x0000000000035378        0x0 build/cooja/mtype816.a(uip6.o)
 .data          0x0000000000035378       0x14 build/cooja/mtype816.a(uip-ds6-nbr.o)
 .data          0x000000000003538c        0xc build/cooja/mtype816.a(uip-nd6.o)
 .data          0x0000000000035398        0x0 build/cooja/mtype816.a(sicslowpan.o)
 .data          0x0000000000035398        0x0 build/cooja/mtype816.a(uiplib.o)
 .data          0x0000000000035398        0x0 build/cooja/mtype816.a(rpl.o)
 .data          0x0000000000035398       0x30 build/cooja/mtype816.a(rpl-icmp6.o)
 .data          0x00000000000353c8        0x0 build/cooja/mtype816.a(rpl-dag-root.o)
 .data          0x00000000000353c8        0x0 build/cooja/mtype816.a(watchdog.o)
 .data          0x00000000000353c8        0x0 build/cooja/mtype816.a(int-master.o)
 .data          0x00000000000353c8       0x10 build/cooja/mtype816.a(coap-observe-cl)
 .data          0x00000000000353d8       0x10 build/cooja/mtype816.a(coap-timer-defa)
                0x00000000000353d8                coap_timer_process
 .data          0x00000000000353e8        0x0 build/cooja/mtype816.a(stimer.o)
 .data          0x00000000000353e8        0x0 build/cooja/mtype816.a(ringbuf.o)
 .data          0x00000000000353e8        0x0 build/cooja/mtype816.a(assert.o)
 .data          0x00000000000353e8       0x10 build/cooja/mtype816.a(nbr-table.o)
 .data          0x00000000000353f8       0x14 build/cooja/mtype816.a(link-stats.o)
 .data          0x000000000003540c        0x0 build/cooja/mtype816.a(mac-sequence.o)
 .data          0x000000000003540c        0x0 build/cooja/mtype816.a(mac.o)
 .data          0x000000000003540c        0x0 build/cooja/mtype816.a(framer-802154.o)
 .data          0x000000000003540c        0x2 build/cooja/mtype816.a(frame802154.o)
 .data          0x000000000003540e        0x0 build/cooja/mtype816.a(csma-security.o)
 .data          0x000000000003540e        0x0 build/cooja/mtype816.a(uipbuf.o)
 *fill*         0x000000000003540e        0x2 
 .data          0x0000000000035410       0x20 build/cooja/mtype816.a(uip-icmp6.o)
 .data          0x0000000000035430       0x10 build/cooja/mtype816.a(uip-sr.o)
 .data          0x0000000000035440        0xc build/cooja/mtype816.a(uip-packetqueue)
 .data          0x000000000003544c        0x0 build/cooja/mtype816.a(rpl-nbr-policy.)
 .data          0x000000000003544c       0x14 build/cooja/mtype816.a(rpl-neighbor.o)
                0x000000000003545c                rpl_neighbors
 .data          0x0000000000035460        0x0 build/cooja/mtype816.a(rpl-dag.o)
 .data          0x0000000000035460        0x0 build/cooja/mtype816.a(rpl-timers.o)
 .data          0x0000000000035460        0x0 build/cooja/mtype816.a(rpl-ext-header.)
 .data          0x0000000000035460       0x24 build/cooja/mtype816.a(rpl-mrhof.o)
                0x0000000000035460                rpl_mrhof
 .data          0x0000000000035484        0x0 /usr/lib/gcc/i686-linux-gnu/5/libgcc.a(_udivdi3.o)
 .data          0x0000000000035484        0x0 /usr/lib/gcc/i686-linux-gnu/5/crtendS.o
 .data          0x0000000000035484        0x0 /usr/lib/gcc/i686-linux-gnu/5/../../../i386-linux-gnu/crtn.o

.tm_clone_table
                0x0000000000035484        0x0
 .tm_clone_table
                0x0000000000035484        0x0 /usr/lib/gcc/i686-linux-gnu/5/crtbeginS.o
 .tm_clone_table
                0x0000000000035484        0x0 /usr/lib/gcc/i686-linux-gnu/5/crtendS.o

.data1
 *(.data1)
                0x0000000000035484                _edata = .
                [!provide]                        PROVIDE (edata, .)
                0x0000000000035484                . = .
                0x0000000000035484                __bss_start = .

.bss            0x00000000000354a0    0x14124
 *(.dynbss)
 .dynbss        0x00000000000354a0        0x0 /usr/lib/gcc/i686-linux-gnu/5/../../../i386-linux-gnu/crti.o
 *(.bss .bss.* .gnu.linkonce.b.*)
 .bss           0x00000000000354a0        0x0 /usr/lib/gcc/i686-linux-gnu/5/../../../i386-linux-gnu/crti.o
 .bss           0x00000000000354a0        0x1 /usr/lib/gcc/i686-linux-gnu/5/crtbeginS.o
 *fill*         0x00000000000354a1       0x1f 
 .bss           0x00000000000354c0      0x12c oxygen_sensor.o
                0x00000000000354c0                registered
 *fill*         0x00000000000355ec       0x14 
 .bss           0x0000000000035600     0x2030 build/cooja/mtype816.o
 .bss           0x0000000000037630        0x1 build/cooja/mtype816.a(simEnvChange.o)
                0x0000000000037630                simDontFallAsleep
 *fill*         0x0000000000037631        0x3 
 .bss           0x0000000000037634        0x4 build/cooja/mtype816.a(cooja_mt.o)
 .bss           0x0000000000037638        0x4 build/cooja/mtype816.a(cooja_mtarch.o)
 .bss           0x000000000003763c        0x0 build/cooja/mtype816.a(rtimer-arch.o)
 .bss           0x000000000003763c        0x0 build/cooja/mtype816.a(beep.o)
 .bss           0x000000000003763c        0x1 build/cooja/mtype816.a(leds-arch.o)
                0x000000000003763c                simLedsValue
 .bss           0x000000000003763d        0x0 build/cooja/mtype816.a(moteid.o)
 .bss           0x000000000003763d        0x1 build/cooja/mtype816.a(pir-sensor.o)
                0x000000000003763d                simPirValue
 *fill*         0x000000000003763e        0x2 
 .bss           0x0000000000037640        0x4 build/cooja/mtype816.a(rs232.o)
 .bss           0x0000000000037644        0x1 build/cooja/mtype816.a(vib-sensor.o)
                0x0000000000037644                simVibValue
 .bss           0x0000000000037645        0x0 build/cooja/mtype816.a(clock.o)
 *fill*         0x0000000000037645       0x1b 
 .bss           0x0000000000037660     0x2020 build/cooja/mtype816.a(cooja-log.o)
 .bss           0x0000000000039680      0xfc0 build/cooja/mtype816.a(cfs-cooja.o)
                0x0000000000039680                simCFSData
                0x000000000003a620                simCFSSize
                0x000000000003a624                simCFSChanged
                0x000000000003a628                simCFSRead
                0x000000000003a62c                simCFSWritten
 .bss           0x000000000003a640       0x24 build/cooja/mtype816.a(cooja-radio.o)
                0x000000000003a640                simReceiving
                0x000000000003a644                simInSize
                0x000000000003a648                simLastPacketTimestamp
                0x000000000003a650                simOutSize
 .bss           0x000000000003a664        0xc build/cooja/mtype816.a(eeprom.o)
                0x000000000003a664                simEEPROMChanged
                0x000000000003a668                simEEPROMRead
                0x000000000003a66c                simEEPROMWritten
 .bss           0x000000000003a670        0x0 build/cooja/mtype816.a(random.o)
 .bss           0x000000000003a670        0xc build/cooja/mtype816.a(sensors.o)
 .bss           0x000000000003a67c        0x0 build/cooja/mtype816.a(leds.o)
 .bss           0x000000000003a67c       0x24 build/cooja/mtype816.a(gpio-hal-arch.o)
 .bss           0x000000000003a6a0        0x0 build/cooja/mtype816.a(buttons.o)
 .bss           0x000000000003a6a0        0x0 build/cooja/mtype816.a(oxygen_measurin)
 .bss           0x000000000003a6a0        0x0 build/cooja/mtype816.a(coap-blocking-a)
 .bss           0x000000000003a6a0      0x190 build/cooja/mtype816.a(coap-engine.o)
 .bss           0x000000000003a830        0x0 build/cooja/mtype816.a(coap-res-well-k)
 *fill*         0x000000000003a830       0x10 
 .bss           0x000000000003a840      0x120 build/cooja/mtype816.a(coap-observe.o)
 .bss           0x000000000003a960       0x18 build/cooja/mtype816.a(coap-uip.o)
 .bss           0x000000000003a978        0x5 build/cooja/mtype816.a(coap-timer.o)
 *fill*         0x000000000003a97d        0x3 
 .bss           0x000000000003a980      0x334 build/cooja/mtype816.a(coap-transactio)
 .bss           0x000000000003acb4        0x6 build/cooja/mtype816.a(coap.o)
                0x000000000003acb4                coap_status_code
 .bss           0x000000000003acba        0x0 build/cooja/mtype816.a(contiki-main.o)
 .bss           0x000000000003acba        0x0 build/cooja/mtype816.a(autostart.o)
 *fill*         0x000000000003acba        0x2 
 .bss           0x000000000003acbc        0x5 build/cooja/mtype816.a(ctimer.o)
 *fill*         0x000000000003acc1        0x3 
 .bss           0x000000000003acc4       0x2c build/cooja/mtype816.a(log.o)
                0x000000000003acc4                curr_log_level_rpl
                0x000000000003acc8                curr_log_level_tcpip
                0x000000000003accc                curr_log_level_ipv6
                0x000000000003acd0                curr_log_level_6lowpan
                0x000000000003acd4                curr_log_level_nullnet
                0x000000000003acd8                curr_log_level_mac
                0x000000000003acdc                curr_log_level_framer
                0x000000000003ace0                curr_log_level_6top
                0x000000000003ace4                curr_log_level_coap
                0x000000000003ace8                curr_log_level_snmp
                0x000000000003acec                curr_log_level_lwm2m
 .bss           0x000000000003acf0        0x0 build/cooja/mtype816.a(energest.o)
 .bss           0x000000000003acf0        0x8 build/cooja/mtype816.a(etimer.o)
 .bss           0x000000000003acf8        0x2 build/cooja/mtype816.a(node-id.o)
                0x000000000003acf8                node_id
 *fill*         0x000000000003acfa        0x2 
 .bss           0x000000000003acfc        0x4 build/cooja/mtype816.a(rtimer.o)
 .bss           0x000000000003ad00      0x1a1 build/cooja/mtype816.a(process.o)
                0x000000000003ad00                process_list
                0x000000000003ad04                process_current
 .bss           0x000000000003aea1        0x0 build/cooja/mtype816.a(timer.o)
 .bss           0x000000000003aea1        0x0 build/cooja/mtype816.a(list.o)
 .bss           0x000000000003aea1        0x0 build/cooja/mtype816.a(memb.o)
 *fill*         0x000000000003aea1        0x3 
 .bss           0x000000000003aea4       0x10 build/cooja/mtype816.a(button-hal.o)
 *fill*         0x000000000003aeb4        0xc 
 .bss           0x000000000003aec0      0x140 build/cooja/mtype816.a(serial-line.o)
 .bss           0x000000000003b000        0x4 build/cooja/mtype816.a(gpio-hal.o)
 *fill*         0x000000000003b004       0x1c 
 .bss           0x000000000003b020     0x2c80 build/cooja/mtype816.a(queuebuf.o)
 .bss           0x000000000003dca0       0xa0 build/cooja/mtype816.a(packetbuf.o)
 .bss           0x000000000003dd40        0x4 build/cooja/mtype816.a(netstack.o)
 .bss           0x000000000003dd44        0x0 build/cooja/mtype816.a(linkaddr.o)
 .bss           0x000000000003dd44        0x0 build/cooja/mtype816.a(csma.o)
 *fill*         0x000000000003dd44       0x1c 
 .bss           0x000000000003dd60      0x726 build/cooja/mtype816.a(csma-output.o)
 *fill*         0x000000000003e486        0x2 
 .bss           0x000000000003e488       0x30 build/cooja/mtype816.a(uip-ds6.o)
 .bss           0x000000000003e4b8        0x0 build/cooja/mtype816.a(uip-udp-packet.)
 *fill*         0x000000000003e4b8        0x8 
 .bss           0x000000000003e4c0       0x60 build/cooja/mtype816.a(uip-ds6-route.o)
 .bss           0x000000000003e520       0x10 build/cooja/mtype816.a(tcpip.o)
 .bss           0x000000000003e530        0x8 build/cooja/mtype816.a(uip6.o)
                0x000000000003e530                uip_ext_bitmap
                0x000000000003e532                uip_ext_len
                0x000000000003e534                uip_last_proto
 *fill*         0x000000000003e538        0x8 
 .bss           0x000000000003e540     0x1c20 build/cooja/mtype816.a(uip-ds6-nbr.o)
 .bss           0x0000000000040160       0x10 build/cooja/mtype816.a(uip-nd6.o)
 *fill*         0x0000000000040170       0x10 
 .bss           0x0000000000040180      0x724 build/cooja/mtype816.a(sicslowpan.o)
 .bss           0x00000000000408a4        0x0 build/cooja/mtype816.a(uiplib.o)
 .bss           0x00000000000408a4        0x1 build/cooja/mtype816.a(rpl.o)
 .bss           0x00000000000408a5        0x0 build/cooja/mtype816.a(rpl-icmp6.o)
 *fill*         0x00000000000408a5        0x3 
 .bss           0x00000000000408a8       0x11 build/cooja/mtype816.a(rpl-dag-root.o)
 .bss           0x00000000000408b9        0x0 build/cooja/mtype816.a(watchdog.o)
 *fill*         0x00000000000408b9        0x3 
 .bss           0x00000000000408bc        0x4 build/cooja/mtype816.a(int-master.o)
 .bss           0x00000000000408c0      0x1b1 build/cooja/mtype816.a(coap-observe-cl)
 *fill*         0x0000000000040a71        0x7 
 .bss           0x0000000000040a78       0x1c build/cooja/mtype816.a(coap-timer-defa)
 .bss           0x0000000000040a94        0x0 build/cooja/mtype816.a(stimer.o)
 .bss           0x0000000000040a94        0x0 build/cooja/mtype816.a(ringbuf.o)
 .bss           0x0000000000040a94        0x0 build/cooja/mtype816.a(assert.o)
 *fill*         0x0000000000040a94        0xc 
 .bss           0x0000000000040aa0     0x1214 build/cooja/mtype816.a(nbr-table.o)
 *fill*         0x0000000000041cb4        0xc 
 .bss           0x0000000000041cc0      0xe10 build/cooja/mtype816.a(link-stats.o)
 *fill*         0x0000000000042ad0       0x10 
 .bss           0x0000000000042ae0      0x100 build/cooja/mtype816.a(mac-sequence.o)
 .bss           0x0000000000042be0        0x0 build/cooja/mtype816.a(mac.o)
 .bss           0x0000000000042be0        0x2 build/cooja/mtype816.a(framer-802154.o)
 .bss           0x0000000000042be2        0x0 build/cooja/mtype816.a(frame802154.o)
 .bss           0x0000000000042be2        0x0 build/cooja/mtype816.a(csma-security.o)
 *fill*         0x0000000000042be2        0x2 
 .bss           0x0000000000042be4       0x18 build/cooja/mtype816.a(uipbuf.o)
 .bss           0x0000000000042bfc       0x18 build/cooja/mtype816.a(uip-icmp6.o)
 *fill*         0x0000000000042c14        0xc 
 .bss           0x0000000000042c20     0x1d80 build/cooja/mtype816.a(uip-sr.o)
 .bss           0x00000000000449a0      0xa78 build/cooja/mtype816.a(uip-packetqueue)
 .bss           0x0000000000045418        0xe build/cooja/mtype816.a(rpl-nbr-policy.)
 *fill*         0x0000000000045426       0x1a 
 .bss           0x0000000000045440      0x960 build/cooja/mtype816.a(rpl-neighbor.o)
 .bss           0x0000000000045da0        0x0 build/cooja/mtype816.a(rpl-dag.o)
 .bss           0x0000000000045da0       0x40 build/cooja/mtype816.a(rpl-timers.o)
 .bss           0x0000000000045de0        0x0 build/cooja/mtype816.a(rpl-ext-header.)
 .bss           0x0000000000045de0        0x0 build/cooja/mtype816.a(rpl-mrhof.o)
 .bss           0x0000000000045de0        0x0 /usr/lib/gcc/i686-linux-gnu/5/libgcc.a(_udivdi3.o)
 .bss           0x0000000000045de0        0x0 /usr/lib/gcc/i686-linux-gnu/5/crtendS.o
 .bss           0x0000000000045de0        0x0 /usr/lib/gcc/i686-linux-gnu/5/../../../i386-linux-gnu/crtn.o
 *(COMMON)
 COMMON         0x0000000000045de0        0x8 build/cooja/mtype816.o
                0x0000000000045de0                referenceVar
                0x0000000000045de4                sensors_flags
 COMMON         0x0000000000045de8        0xc build/cooja/mtype816.a(simEnvChange.o)
                0x0000000000045de8                simEtimerPending
                0x0000000000045dec                simProcessRunValue
                0x0000000000045df0                simEtimerNextExpirationTime
 *fill*         0x0000000000045df4        0x4 
 COMMON         0x0000000000045df8       0x18 build/cooja/mtype816.a(rtimer-arch.o)
                0x0000000000045df8                simRtimerPending
                0x0000000000045e00                simRtimerCurrentTicks
                0x0000000000045e08                simRtimerNextExpirationTime
 COMMON         0x0000000000045e10        0x1 build/cooja/mtype816.a(beep.o)
                0x0000000000045e10                simBeeped
 *fill*         0x0000000000045e11        0x3 
 COMMON         0x0000000000045e14        0xc build/cooja/mtype816.a(moteid.o)
                0x0000000000045e14                simRandomSeed
                0x0000000000045e18                simMoteIDChanged
                0x0000000000045e1c                simMoteID
 COMMON         0x0000000000045e20        0x2 build/cooja/mtype816.a(pir-sensor.o)
                0x0000000000045e20                simPirIsActive
                0x0000000000045e21                simPirChanged
 *fill*         0x0000000000045e22       0x1e 
 COMMON         0x0000000000045e40      0x820 build/cooja/mtype816.a(rs232.o)
                0x0000000000045e40                simSerialReceivingFlag
                0x0000000000045e44                simSerialReceivingLength
                0x0000000000045e60                simSerialReceivingData
 COMMON         0x0000000000046660        0x2 build/cooja/mtype816.a(vib-sensor.o)
                0x0000000000046660                simVibChanged
                0x0000000000046661                simVibIsActive
 *fill*         0x0000000000046662        0x2 
 COMMON         0x0000000000046664        0x4 build/cooja/mtype816.a(clock.o)
                0x0000000000046664                simCurrentTime
 *fill*         0x0000000000046668       0x18 
 COMMON         0x0000000000046680     0x2020 build/cooja/mtype816.a(cooja-log.o)
                0x0000000000046680                simLoggedLength
                0x0000000000046684                simLoggedFlag
                0x00000000000466a0                simLoggedData
 COMMON         0x00000000000486a0       0xfd build/cooja/mtype816.a(cooja-radio.o)
                0x00000000000486a0                simOutDataBuffer
                0x0000000000048720                simInDataBuffer
 *fill*         0x000000000004879d        0x3 
 COMMON         0x00000000000487a0      0x400 build/cooja/mtype816.a(eeprom.o)
                0x00000000000487a0                simEEPROMData
 COMMON         0x0000000000048ba0        0x1 build/cooja/mtype816.a(sensors.o)
                0x0000000000048ba0                sensors_event
 COMMON         0x0000000000048ba1        0x2 build/cooja/mtype816.a(buttons.o)
                0x0000000000048ba1                simButtonIsDown
                0x0000000000048ba2                simButtonChanged
 *fill*         0x0000000000048ba3        0x1 
 COMMON         0x0000000000048ba4       0x60 build/cooja/mtype816.a(contiki-main.o)
                0x0000000000048ba4                eb_per_time_source
                0x0000000000048bbc                unicast_per_neighbor_rpl_storing
                0x0000000000048bd4                unicast_per_neighbor_rpl_ns
                0x0000000000048bec                default_common
 COMMON         0x0000000000048c04        0x3 build/cooja/mtype816.a(button-hal.o)
                0x0000000000048c04                button_hal_periodic_event
                0x0000000000048c05                button_hal_press_event
                0x0000000000048c06                button_hal_release_event
 COMMON         0x0000000000048c07        0x1 build/cooja/mtype816.a(serial-line.o)
                0x0000000000048c07                serial_line_event_message
 COMMON         0x0000000000048c08       0x2c build/cooja/mtype816.a(packetbuf.o)
                0x0000000000048c08                packetbuf_attrs
                0x0000000000048c24                packetbuf_addrs
 COMMON         0x0000000000048c34        0x8 build/cooja/mtype816.a(linkaddr.o)
                0x0000000000048c34                linkaddr_node_addr
 *fill*         0x0000000000048c3c        0x4 
 COMMON         0x0000000000048c40      0x181 build/cooja/mtype816.a(uip-ds6.o)
                0x0000000000048c40                uip_ds6_prefix_list
                0x0000000000048ca0                uip_ds6_timer_periodic
                0x0000000000048cb0                uip_ds6_netif_addr_list_offset
                0x0000000000048cc0                uip_ds6_if
                0x0000000000048db8                uip_ds6_timer_ra
                0x0000000000048dc0                uip_ds6_addr_size
 COMMON         0x0000000000048dc1        0x1 build/cooja/mtype816.a(tcpip.o)
                0x0000000000048dc1                tcpip_event
 *fill*         0x0000000000048dc2       0x1e 
 COMMON         0x0000000000048de0      0x648 build/cooja/mtype816.a(uip6.o)
                0x0000000000048de0                uip_slen
                0x0000000000048de4                uip_lladdr
                0x0000000000048dec                uip_appdata
                0x0000000000048df0                uip_flags
                0x0000000000048e00                uip_aligned_buf
                0x0000000000049300                uip_len
                0x0000000000049304                uip_sappdata
                0x0000000000049320                uip_udp_conns
                0x0000000000049420                uip_udp_conn
                0x0000000000049424                uip_conn
 COMMON         0x0000000000049428       0x10 build/cooja/mtype816.a(rpl.o)
                0x0000000000049428                rpl_multicast_addr
 *fill*         0x0000000000049438        0x8 
 COMMON         0x0000000000049440       0x20 build/cooja/mtype816.a(link-stats.o)
                0x0000000000049440                periodic_timer
 COMMON         0x0000000000049460      0x164 build/cooja/mtype816.a(rpl-dag.o)
                0x0000000000049460                curr_instance
                0x00000000000495c4                . = ALIGN ((. != 0x0)?0x4:0x1)
                0x00000000000495c4                . = ALIGN (0x4)
                0x00000000000495c4                . = SEGMENT_START ("ldata-segment", .)
                0x00000000000495c4                . = ALIGN (0x4)
                0x00000000000495c4                _end = .
                [!provide]                        PROVIDE (end, .)
                0x00000000000495c4                . = DATA_SEGMENT_END (.)

.stab
 *(.stab)

.stabstr
 *(.stabstr)

.stab.excl
 *(.stab.excl)

.stab.exclstr
 *(.stab.exclstr)

.stab.index
 *(.stab.index)

.stab.indexstr
 *(.stab.indexstr)

.comment        0x0000000000000000       0x35
 *(.comment)
 .comment       0x0000000000000000       0x35 /usr/lib/gcc/i686-linux-gnu/5/crtbeginS.o
                                         0x36 (size before relaxing)
 .comment       0x0000000000000035       0x36 oxygen_sensor.o
 .comment       0x0000000000000035       0x36 build/cooja/mtype816.o
 .comment       0x0000000000000035       0x36 build/cooja/mtype816.a(simEnvChange.o)
 .comment       0x0000000000000035       0x36 build/cooja/mtype816.a(cooja_mt.o)
 .comment       0x0000000000000035       0x36 build/cooja/mtype816.a(cooja_mtarch.o)
 .comment       0x0000000000000035       0x36 build/cooja/mtype816.a(rtimer-arch.o)
 .comment       0x0000000000000035       0x36 build/cooja/mtype816.a(beep.o)
 .comment       0x0000000000000035       0x36 build/cooja/mtype816.a(leds-arch.o)
 .comment       0x0000000000000035       0x36 build/cooja/mtype816.a(moteid.o)
 .comment       0x0000000000000035       0x36 build/cooja/mtype816.a(pir-sensor.o)
 .comment       0x0000000000000035       0x36 build/cooja/mtype816.a(rs232.o)
 .comment       0x0000000000000035       0x36 build/cooja/mtype816.a(vib-sensor.o)
 .comment       0x0000000000000035       0x36 build/cooja/mtype816.a(clock.o)
 .comment       0x0000000000000035       0x36 build/cooja/mtype816.a(cooja-log.o)
 .comment       0x0000000000000035       0x36 build/cooja/mtype816.a(cfs-cooja.o)
 .comment       0x0000000000000035       0x36 build/cooja/mtype816.a(cooja-radio.o)
 .comment       0x0000000000000035       0x36 build/cooja/mtype816.a(eeprom.o)
 .comment       0x0000000000000035       0x36 build/cooja/mtype816.a(random.o)
 .comment       0x0000000000000035       0x36 build/cooja/mtype816.a(sensors.o)
 .comment       0x0000000000000035       0x36 build/cooja/mtype816.a(leds.o)
 .comment       0x0000000000000035       0x36 build/cooja/mtype816.a(gpio-hal-arch.o)
 .comment       0x0000000000000035       0x36 build/cooja/mtype816.a(buttons.o)
 .comment       0x0000000000000035       0x36 build/cooja/mtype816.a(oxygen_measurin)
 .comment       0x0000000000000035       0x36 build/cooja/mtype816.a(coap-blocking-a)
 .comment       0x0000000000000035       0x36 build/cooja/mtype816.a(coap-engine.o)
 .comment       0x0000000000000035       0x36 build/cooja/mtype816.a(coap-res-well-k)
 .comment       0x0000000000000035       0x36 build/cooja/mtype816.a(coap-observe.o)
 .comment       0x0000000000000035       0x36 build/cooja/mtype816.a(coap-uip.o)
 .comment       0x0000000000000035       0x36 build/cooja/mtype816.a(coap-timer.o)
 .comment       0x0000000000000035       0x36 build/cooja/mtype816.a(coap-transactio)
 .comment       0x0000000000000035       0x36 build/cooja/mtype816.a(coap.o)
 .comment       0x0000000000000035       0x36 build/cooja/mtype816.a(contiki-main.o)
 .comment       0x0000000000000035       0x36 build/cooja/mtype816.a(autostart.o)
 .comment       0x0000000000000035       0x36 build/cooja/mtype816.a(ctimer.o)
 .comment       0x0000000000000035       0x36 build/cooja/mtype816.a(log.o)
 .comment       0x0000000000000035       0x36 build/cooja/mtype816.a(energest.o)
 .comment       0x0000000000000035       0x36 build/cooja/mtype816.a(etimer.o)
 .comment       0x0000000000000035       0x36 build/cooja/mtype816.a(node-id.o)
 .comment       0x0000000000000035       0x36 build/cooja/mtype816.a(rtimer.o)
 .comment       0x0000000000000035       0x36 build/cooja/mtype816.a(process.o)
 .comment       0x0000000000000035       0x36 build/cooja/mtype816.a(timer.o)
 .comment       0x0000000000000035       0x36 build/cooja/mtype816.a(list.o)
 .comment       0x0000000000000035       0x36 build/cooja/mtype816.a(memb.o)
 .comment       0x0000000000000035       0x36 build/cooja/mtype816.a(button-hal.o)
 .comment       0x0000000000000035       0x36 build/cooja/mtype816.a(serial-line.o)
 .comment       0x0000000000000035       0x36 build/cooja/mtype816.a(gpio-hal.o)
 .comment       0x0000000000000035       0x36 build/cooja/mtype816.a(queuebuf.o)
 .comment       0x0000000000000035       0x36 build/cooja/mtype816.a(packetbuf.o)
 .comment       0x0000000000000035       0x36 build/cooja/mtype816.a(netstack.o)
 .comment       0x0000000000000035       0x36 build/cooja/mtype816.a(linkaddr.o)
 .comment       0x0000000000000035       0x36 build/cooja/mtype816.a(csma.o)
 .comment       0x0000000000000035       0x36 build/cooja/mtype816.a(csma-output.o)
 .comment       0x0000000000000035       0x36 build/cooja/mtype816.a(uip-ds6.o)
 .comment       0x0000000000000035       0x36 build/cooja/mtype816.a(uip-udp-packet.)
 .comment       0x0000000000000035       0x36 build/cooja/mtype816.a(uip-ds6-route.o)
 .comment       0x0000000000000035       0x36 build/cooja/mtype816.a(tcpip.o)
 .comment       0x0000000000000035       0x36 build/cooja/mtype816.a(uip6.o)
 .comment       0x0000000000000035       0x36 build/cooja/mtype816.a(uip-ds6-nbr.o)
 .comment       0x0000000000000035       0x36 build/cooja/mtype816.a(uip-nd6.o)
 .comment       0x0000000000000035       0x36 build/cooja/mtype816.a(sicslowpan.o)
 .comment       0x0000000000000035       0x36 build/cooja/mtype816.a(uiplib.o)
 .comment       0x0000000000000035       0x36 build/cooja/mtype816.a(rpl.o)
 .comment       0x0000000000000035       0x36 build/cooja/mtype816.a(rpl-icmp6.o)
 .comment       0x0000000000000035       0x36 build/cooja/mtype816.a(rpl-dag-root.o)
 .comment       0x0000000000000035       0x36 build/cooja/mtype816.a(watchdog.o)
 .comment       0x0000000000000035       0x36 build/cooja/mtype816.a(int-master.o)
 .comment       0x0000000000000035       0x36 build/cooja/mtype816.a(coap-observe-cl)
 .comment       0x0000000000000035       0x36 build/cooja/mtype816.a(coap-timer-defa)
 .comment       0x0000000000000035       0x36 build/cooja/mtype816.a(stimer.o)
 .comment       0x0000000000000035       0x36 build/cooja/mtype816.a(ringbuf.o)
 .comment       0x0000000000000035       0x36 build/cooja/mtype816.a(assert.o)
 .comment       0x0000000000000035       0x36 build/cooja/mtype816.a(nbr-table.o)
 .comment       0x0000000000000035       0x36 build/cooja/mtype816.a(link-stats.o)
 .comment       0x0000000000000035       0x36 build/cooja/mtype816.a(mac-sequence.o)
 .comment       0x0000000000000035       0x36 build/cooja/mtype816.a(mac.o)
 .comment       0x0000000000000035       0x36 build/cooja/mtype816.a(framer-802154.o)
 .comment       0x0000000000000035       0x36 build/cooja/mtype816.a(frame802154.o)
 .comment       0x0000000000000035       0x36 build/cooja/mtype816.a(csma-security.o)
 .comment       0x0000000000000035       0x36 build/cooja/mtype816.a(uipbuf.o)
 .comment       0x0000000000000035       0x36 build/cooja/mtype816.a(uip-icmp6.o)
 .comment       0x0000000000000035       0x36 build/cooja/mtype816.a(uip-sr.o)
 .comment       0x0000000000000035       0x36 build/cooja/mtype816.a(uip-packetqueue)
 .comment       0x0000000000000035       0x36 build/cooja/mtype816.a(rpl-nbr-policy.)
 .comment       0x0000000000000035       0x36 build/cooja/mtype816.a(rpl-neighbor.o)
 .comment       0x0000000000000035       0x36 build/cooja/mtype816.a(rpl-dag.o)
 .comment       0x0000000000000035       0x36 build/cooja/mtype816.a(rpl-timers.o)
 .comment       0x0000000000000035       0x36 build/cooja/mtype816.a(rpl-ext-header.)
 .comment       0x0000000000000035       0x36 build/cooja/mtype816.a(rpl-mrhof.o)
 .comment       0x0000000000000035       0x36 /usr/lib/gcc/i686-linux-gnu/5/crtendS.o

.debug
 *(.debug)

.line
 *(.line)

.debug_srcinfo
 *(.debug_srcinfo)

.debug_sfnames
 *(.debug_sfnames)

.debug_aranges  0x0000000000000000      0xb00
 *(.debug_aranges)
 .debug_aranges
                0x0000000000000000       0x20 oxygen_sensor.o
 .debug_aranges
                0x0000000000000020       0x20 build/cooja/mtype816.o
 .debug_aranges
                0x0000000000000040       0x20 build/cooja/mtype816.a(simEnvChange.o)
 .debug_aranges
                0x0000000000000060       0x20 build/cooja/mtype816.a(cooja_mt.o)
 .debug_aranges
                0x0000000000000080       0x20 build/cooja/mtype816.a(cooja_mtarch.o)
 .debug_aranges
                0x00000000000000a0       0x20 build/cooja/mtype816.a(rtimer-arch.o)
 .debug_aranges
                0x00000000000000c0       0x20 build/cooja/mtype816.a(beep.o)
 .debug_aranges
                0x00000000000000e0       0x20 build/cooja/mtype816.a(leds-arch.o)
 .debug_aranges
                0x0000000000000100       0x20 build/cooja/mtype816.a(moteid.o)
 .debug_aranges
                0x0000000000000120       0x20 build/cooja/mtype816.a(pir-sensor.o)
 .debug_aranges
                0x0000000000000140       0x20 build/cooja/mtype816.a(rs232.o)
 .debug_aranges
                0x0000000000000160       0x20 build/cooja/mtype816.a(vib-sensor.o)
 .debug_aranges
                0x0000000000000180       0x20 build/cooja/mtype816.a(clock.o)
 .debug_aranges
                0x00000000000001a0       0x20 build/cooja/mtype816.a(cooja-log.o)
 .debug_aranges
                0x00000000000001c0       0x20 build/cooja/mtype816.a(cfs-cooja.o)
 .debug_aranges
                0x00000000000001e0       0x20 build/cooja/mtype816.a(cooja-radio.o)
 .debug_aranges
                0x0000000000000200       0x20 build/cooja/mtype816.a(eeprom.o)
 .debug_aranges
                0x0000000000000220       0x20 build/cooja/mtype816.a(random.o)
 .debug_aranges
                0x0000000000000240       0x20 build/cooja/mtype816.a(sensors.o)
 .debug_aranges
                0x0000000000000260       0x20 build/cooja/mtype816.a(leds.o)
 .debug_aranges
                0x0000000000000280       0x20 build/cooja/mtype816.a(gpio-hal-arch.o)
 .debug_aranges
                0x00000000000002a0       0x20 build/cooja/mtype816.a(buttons.o)
 .debug_aranges
                0x00000000000002c0       0x20 build/cooja/mtype816.a(oxygen_measurin)
 .debug_aranges
                0x00000000000002e0       0x20 build/cooja/mtype816.a(coap-blocking-a)
 .debug_aranges
                0x0000000000000300       0x20 build/cooja/mtype816.a(coap-engine.o)
 .debug_aranges
                0x0000000000000320       0x20 build/cooja/mtype816.a(coap-res-well-k)
 .debug_aranges
                0x0000000000000340       0x20 build/cooja/mtype816.a(coap-observe.o)
 .debug_aranges
                0x0000000000000360       0x20 build/cooja/mtype816.a(coap-uip.o)
 .debug_aranges
                0x0000000000000380       0x20 build/cooja/mtype816.a(coap-timer.o)
 .debug_aranges
                0x00000000000003a0       0x20 build/cooja/mtype816.a(coap-transactio)
 .debug_aranges
                0x00000000000003c0       0x20 build/cooja/mtype816.a(coap.o)
 .debug_aranges
                0x00000000000003e0       0x20 build/cooja/mtype816.a(contiki-main.o)
 .debug_aranges
                0x0000000000000400       0x20 build/cooja/mtype816.a(autostart.o)
 .debug_aranges
                0x0000000000000420       0x20 build/cooja/mtype816.a(ctimer.o)
 .debug_aranges
                0x0000000000000440       0x20 build/cooja/mtype816.a(log.o)
 .debug_aranges
                0x0000000000000460       0x20 build/cooja/mtype816.a(energest.o)
 .debug_aranges
                0x0000000000000480       0x20 build/cooja/mtype816.a(etimer.o)
 .debug_aranges
                0x00000000000004a0       0x20 build/cooja/mtype816.a(node-id.o)
 .debug_aranges
                0x00000000000004c0       0x20 build/cooja/mtype816.a(rtimer.o)
 .debug_aranges
                0x00000000000004e0       0x20 build/cooja/mtype816.a(process.o)
 .debug_aranges
                0x0000000000000500       0x20 build/cooja/mtype816.a(timer.o)
 .debug_aranges
                0x0000000000000520       0x20 build/cooja/mtype816.a(list.o)
 .debug_aranges
                0x0000000000000540       0x20 build/cooja/mtype816.a(memb.o)
 .debug_aranges
                0x0000000000000560       0x20 build/cooja/mtype816.a(button-hal.o)
 .debug_aranges
                0x0000000000000580       0x20 build/cooja/mtype816.a(serial-line.o)
 .debug_aranges
                0x00000000000005a0       0x20 build/cooja/mtype816.a(gpio-hal.o)
 .debug_aranges
                0x00000000000005c0       0x20 build/cooja/mtype816.a(queuebuf.o)
 .debug_aranges
                0x00000000000005e0       0x20 build/cooja/mtype816.a(packetbuf.o)
 .debug_aranges
                0x0000000000000600       0x20 build/cooja/mtype816.a(netstack.o)
 .debug_aranges
                0x0000000000000620       0x20 build/cooja/mtype816.a(linkaddr.o)
 .debug_aranges
                0x0000000000000640       0x20 build/cooja/mtype816.a(csma.o)
 .debug_aranges
                0x0000000000000660       0x20 build/cooja/mtype816.a(csma-output.o)
 .debug_aranges
                0x0000000000000680       0x20 build/cooja/mtype816.a(uip-ds6.o)
 .debug_aranges
                0x00000000000006a0       0x20 build/cooja/mtype816.a(uip-udp-packet.)
 .debug_aranges
                0x00000000000006c0       0x20 build/cooja/mtype816.a(uip-ds6-route.o)
 .debug_aranges
                0x00000000000006e0       0x20 build/cooja/mtype816.a(tcpip.o)
 .debug_aranges
                0x0000000000000700       0x20 build/cooja/mtype816.a(uip6.o)
 .debug_aranges
                0x0000000000000720       0x20 build/cooja/mtype816.a(uip-ds6-nbr.o)
 .debug_aranges
                0x0000000000000740       0x20 build/cooja/mtype816.a(uip-nd6.o)
 .debug_aranges
                0x0000000000000760       0x20 build/cooja/mtype816.a(sicslowpan.o)
 .debug_aranges
                0x0000000000000780       0x20 build/cooja/mtype816.a(uiplib.o)
 .debug_aranges
                0x00000000000007a0       0x20 build/cooja/mtype816.a(rpl.o)
 .debug_aranges
                0x00000000000007c0       0x20 build/cooja/mtype816.a(rpl-icmp6.o)
 .debug_aranges
                0x00000000000007e0       0x20 build/cooja/mtype816.a(rpl-dag-root.o)
 .debug_aranges
                0x0000000000000800       0x20 build/cooja/mtype816.a(watchdog.o)
 .debug_aranges
                0x0000000000000820       0x20 build/cooja/mtype816.a(int-master.o)
 .debug_aranges
                0x0000000000000840       0x20 build/cooja/mtype816.a(coap-observe-cl)
 .debug_aranges
                0x0000000000000860       0x20 build/cooja/mtype816.a(coap-timer-defa)
 .debug_aranges
                0x0000000000000880       0x20 build/cooja/mtype816.a(stimer.o)
 .debug_aranges
                0x00000000000008a0       0x20 build/cooja/mtype816.a(ringbuf.o)
 .debug_aranges
                0x00000000000008c0       0x20 build/cooja/mtype816.a(assert.o)
 .debug_aranges
                0x00000000000008e0       0x20 build/cooja/mtype816.a(nbr-table.o)
 .debug_aranges
                0x0000000000000900       0x20 build/cooja/mtype816.a(link-stats.o)
 .debug_aranges
                0x0000000000000920       0x20 build/cooja/mtype816.a(mac-sequence.o)
 .debug_aranges
                0x0000000000000940       0x20 build/cooja/mtype816.a(mac.o)
 .debug_aranges
                0x0000000000000960       0x20 build/cooja/mtype816.a(framer-802154.o)
 .debug_aranges
                0x0000000000000980       0x20 build/cooja/mtype816.a(frame802154.o)
 .debug_aranges
                0x00000000000009a0       0x20 build/cooja/mtype816.a(csma-security.o)
 .debug_aranges
                0x00000000000009c0       0x20 build/cooja/mtype816.a(uipbuf.o)
 .debug_aranges
                0x00000000000009e0       0x20 build/cooja/mtype816.a(uip-icmp6.o)
 .debug_aranges
                0x0000000000000a00       0x20 build/cooja/mtype816.a(uip-sr.o)
 .debug_aranges
                0x0000000000000a20       0x20 build/cooja/mtype816.a(uip-packetqueue)
 .debug_aranges
                0x0000000000000a40       0x20 build/cooja/mtype816.a(rpl-nbr-policy.)
 .debug_aranges
                0x0000000000000a60       0x20 build/cooja/mtype816.a(rpl-neighbor.o)
 .debug_aranges
                0x0000000000000a80       0x20 build/cooja/mtype816.a(rpl-dag.o)
 .debug_aranges
                0x0000000000000aa0       0x20 build/cooja/mtype816.a(rpl-timers.o)
 .debug_aranges
                0x0000000000000ac0       0x20 build/cooja/mtype816.a(rpl-ext-header.)
 .debug_aranges
                0x0000000000000ae0       0x20 build/cooja/mtype816.a(rpl-mrhof.o)

.debug_pubnames
 *(.debug_pubnames)

.debug_info     0x0000000000000000    0x275fc
 *(.debug_info .gnu.linkonce.wi.*)
 .debug_info    0x0000000000000000      0xb5c oxygen_sensor.o
 .debug_info    0x0000000000000b5c     0x325a build/cooja/mtype816.o
 .debug_info    0x0000000000003db6      0x15a build/cooja/mtype816.a(simEnvChange.o)
 .debug_info    0x0000000000003f10      0x1af build/cooja/mtype816.a(cooja_mt.o)
 .debug_info    0x00000000000040bf      0x212 build/cooja/mtype816.a(cooja_mtarch.o)
 .debug_info    0x00000000000042d1      0x181 build/cooja/mtype816.a(rtimer-arch.o)
 .debug_info    0x0000000000004452      0x1fa build/cooja/mtype816.a(beep.o)
 .debug_info    0x000000000000464c      0x194 build/cooja/mtype816.a(leds-arch.o)
 .debug_info    0x00000000000047e0      0x111 build/cooja/mtype816.a(moteid.o)
 .debug_info    0x00000000000048f1      0x21d build/cooja/mtype816.a(pir-sensor.o)
 .debug_info    0x0000000000004b0e      0x21e build/cooja/mtype816.a(rs232.o)
 .debug_info    0x0000000000004d2c      0x21d build/cooja/mtype816.a(vib-sensor.o)
 .debug_info    0x0000000000004f49      0x159 build/cooja/mtype816.a(clock.o)
 .debug_info    0x00000000000050a2      0x2bb build/cooja/mtype816.a(cooja-log.o)
 .debug_info    0x000000000000535d      0x3cf build/cooja/mtype816.a(cfs-cooja.o)
 .debug_info    0x000000000000572c      0xb0a build/cooja/mtype816.a(cooja-radio.o)
 .debug_info    0x0000000000006236      0x1d5 build/cooja/mtype816.a(eeprom.o)
 .debug_info    0x000000000000640b       0xb3 build/cooja/mtype816.a(random.o)
 .debug_info    0x00000000000064be      0x36d build/cooja/mtype816.a(sensors.o)
 .debug_info    0x000000000000682b      0x28a build/cooja/mtype816.a(leds.o)
 .debug_info    0x0000000000006ab5      0x40e build/cooja/mtype816.a(gpio-hal-arch.o)
 .debug_info    0x0000000000006ec3      0x4bc build/cooja/mtype816.a(buttons.o)
 .debug_info    0x000000000000737f      0x8e6 build/cooja/mtype816.a(oxygen_measurin)
 .debug_info    0x0000000000007c65      0x836 build/cooja/mtype816.a(coap-blocking-a)
 .debug_info    0x000000000000849b      0xe93 build/cooja/mtype816.a(coap-engine.o)
 .debug_info    0x000000000000932e      0x8a4 build/cooja/mtype816.a(coap-res-well-k)
 .debug_info    0x0000000000009bd2      0xdd0 build/cooja/mtype816.a(coap-observe.o)
 .debug_info    0x000000000000a9a2      0xe48 build/cooja/mtype816.a(coap-uip.o)
 .debug_info    0x000000000000b7ea      0x2f1 build/cooja/mtype816.a(coap-timer.o)
 .debug_info    0x000000000000badb      0x862 build/cooja/mtype816.a(coap-transactio)
 .debug_info    0x000000000000c33d     0x14c2 build/cooja/mtype816.a(coap.o)
 .debug_info    0x000000000000d7ff      0xf52 build/cooja/mtype816.a(contiki-main.o)
 .debug_info    0x000000000000e751      0x1ac build/cooja/mtype816.a(autostart.o)
 .debug_info    0x000000000000e8fd      0x473 build/cooja/mtype816.a(ctimer.o)
 .debug_info    0x000000000000ed70      0x483 build/cooja/mtype816.a(log.o)
 .debug_info    0x000000000000f1f3       0xbc build/cooja/mtype816.a(energest.o)
 .debug_info    0x000000000000f2af      0x49f build/cooja/mtype816.a(etimer.o)
 .debug_info    0x000000000000f74e       0xfb build/cooja/mtype816.a(node-id.o)
 .debug_info    0x000000000000f849      0x1c1 build/cooja/mtype816.a(rtimer.o)
 .debug_info    0x000000000000fa0a      0x4ab build/cooja/mtype816.a(process.o)
 .debug_info    0x000000000000feb5      0x17a build/cooja/mtype816.a(timer.o)
 .debug_info    0x000000000001002f      0x38b build/cooja/mtype816.a(list.o)
 .debug_info    0x00000000000103ba      0x1e4 build/cooja/mtype816.a(memb.o)
 .debug_info    0x000000000001059e      0x60c build/cooja/mtype816.a(button-hal.o)
 .debug_info    0x0000000000010baa      0x2de build/cooja/mtype816.a(serial-line.o)
 .debug_info    0x0000000000010e88      0x25d build/cooja/mtype816.a(gpio-hal.o)
 .debug_info    0x00000000000110e5      0x570 build/cooja/mtype816.a(queuebuf.o)
 .debug_info    0x0000000000011655      0x553 build/cooja/mtype816.a(packetbuf.o)
 .debug_info    0x0000000000011ba8      0x56a build/cooja/mtype816.a(netstack.o)
 .debug_info    0x0000000000012112      0x18b build/cooja/mtype816.a(linkaddr.o)
 .debug_info    0x000000000001229d      0x68e build/cooja/mtype816.a(csma.o)
 .debug_info    0x000000000001292b      0xc80 build/cooja/mtype816.a(csma-output.o)
 .debug_info    0x00000000000135ab      0xae8 build/cooja/mtype816.a(uip-ds6.o)
 .debug_info    0x0000000000014093      0x37a build/cooja/mtype816.a(uip-udp-packet.)
 .debug_info    0x000000000001440d      0x881 build/cooja/mtype816.a(uip-ds6-route.o)
 .debug_info    0x0000000000014c8e      0xf3d build/cooja/mtype816.a(tcpip.o)
 .debug_info    0x0000000000015bcb     0x116c build/cooja/mtype816.a(uip6.o)
 .debug_info    0x0000000000016d37      0xb97 build/cooja/mtype816.a(uip-ds6-nbr.o)
 .debug_info    0x00000000000178ce      0x7fb build/cooja/mtype816.a(uip-nd6.o)
 .debug_info    0x00000000000180c9     0x1723 build/cooja/mtype816.a(sicslowpan.o)
 .debug_info    0x00000000000197ec      0x30b build/cooja/mtype816.a(uiplib.o)
 .debug_info    0x0000000000019af7     0x10bb build/cooja/mtype816.a(rpl.o)
 .debug_info    0x000000000001abb2     0x1065 build/cooja/mtype816.a(rpl-icmp6.o)
 .debug_info    0x000000000001bc17      0xb33 build/cooja/mtype816.a(rpl-dag-root.o)
 .debug_info    0x000000000001c74a       0xda build/cooja/mtype816.a(watchdog.o)
 .debug_info    0x000000000001c824      0x119 build/cooja/mtype816.a(int-master.o)
 .debug_info    0x000000000001c93d      0xd40 build/cooja/mtype816.a(coap-observe-cl)
 .debug_info    0x000000000001d67d      0x330 build/cooja/mtype816.a(coap-timer-defa)
 .debug_info    0x000000000001d9ad      0x187 build/cooja/mtype816.a(stimer.o)
 .debug_info    0x000000000001db34      0x1b8 build/cooja/mtype816.a(ringbuf.o)
 .debug_info    0x000000000001dcec       0xb3 build/cooja/mtype816.a(assert.o)
 .debug_info    0x000000000001dd9f      0x95a build/cooja/mtype816.a(nbr-table.o)
 .debug_info    0x000000000001e6f9      0x67c build/cooja/mtype816.a(link-stats.o)
 .debug_info    0x000000000001ed75      0x213 build/cooja/mtype816.a(mac-sequence.o)
 .debug_info    0x000000000001ef88       0xf3 build/cooja/mtype816.a(mac.o)
 .debug_info    0x000000000001f07b      0x512 build/cooja/mtype816.a(framer-802154.o)
 .debug_info    0x000000000001f58d      0x738 build/cooja/mtype816.a(frame802154.o)
 .debug_info    0x000000000001fcc5      0x166 build/cooja/mtype816.a(csma-security.o)
 .debug_info    0x000000000001fe2b      0x575 build/cooja/mtype816.a(uipbuf.o)
 .debug_info    0x00000000000203a0      0xd4a build/cooja/mtype816.a(uip-icmp6.o)
 .debug_info    0x00000000000210ea      0xb31 build/cooja/mtype816.a(uip-sr.o)
 .debug_info    0x0000000000021c1b      0x477 build/cooja/mtype816.a(uip-packetqueue)
 .debug_info    0x0000000000022092      0xc0e build/cooja/mtype816.a(rpl-nbr-policy.)
 .debug_info    0x0000000000022ca0      0xe69 build/cooja/mtype816.a(rpl-neighbor.o)
 .debug_info    0x0000000000023b09      0xfe3 build/cooja/mtype816.a(rpl-dag.o)
 .debug_info    0x0000000000024aec      0xcbb build/cooja/mtype816.a(rpl-timers.o)
 .debug_info    0x00000000000257a7     0x1496 build/cooja/mtype816.a(rpl-ext-header.)
 .debug_info    0x0000000000026c3d      0x9bf build/cooja/mtype816.a(rpl-mrhof.o)

.debug_abbrev   0x0000000000000000     0x9291
 *(.debug_abbrev)
 .debug_abbrev  0x0000000000000000      0x1f3 oxygen_sensor.o
 .debug_abbrev  0x00000000000001f3      0x27e build/cooja/mtype816.o
 .debug_abbrev  0x0000000000000471       0xc3 build/cooja/mtype816.a(simEnvChange.o)
 .debug_abbrev  0x0000000000000534       0xe6 build/cooja/mtype816.a(cooja_mt.o)
 .debug_abbrev  0x000000000000061a      0x11e build/cooja/mtype816.a(cooja_mtarch.o)
 .debug_abbrev  0x0000000000000738       0xeb build/cooja/mtype816.a(rtimer-arch.o)
 .debug_abbrev  0x0000000000000823       0xe3 build/cooja/mtype816.a(beep.o)
 .debug_abbrev  0x0000000000000906       0xe0 build/cooja/mtype816.a(leds-arch.o)
 .debug_abbrev  0x00000000000009e6       0x9c build/cooja/mtype816.a(moteid.o)
 .debug_abbrev  0x0000000000000a82       0xe6 build/cooja/mtype816.a(pir-sensor.o)
 .debug_abbrev  0x0000000000000b68      0x14a build/cooja/mtype816.a(rs232.o)
 .debug_abbrev  0x0000000000000cb2       0xe6 build/cooja/mtype816.a(vib-sensor.o)
 .debug_abbrev  0x0000000000000d98       0xee build/cooja/mtype816.a(clock.o)
 .debug_abbrev  0x0000000000000e86      0x141 build/cooja/mtype816.a(cooja-log.o)
 .debug_abbrev  0x0000000000000fc7      0x139 build/cooja/mtype816.a(cfs-cooja.o)
 .debug_abbrev  0x0000000000001100      0x2ef build/cooja/mtype816.a(cooja-radio.o)
 .debug_abbrev  0x00000000000013ef       0xf5 build/cooja/mtype816.a(eeprom.o)
 .debug_abbrev  0x00000000000014e4       0x6d build/cooja/mtype816.a(random.o)
 .debug_abbrev  0x0000000000001551      0x1c2 build/cooja/mtype816.a(sensors.o)
 .debug_abbrev  0x0000000000001713       0xfc build/cooja/mtype816.a(leds.o)
 .debug_abbrev  0x000000000000180f      0x115 build/cooja/mtype816.a(gpio-hal-arch.o)
 .debug_abbrev  0x0000000000001924      0x16f build/cooja/mtype816.a(buttons.o)
 .debug_abbrev  0x0000000000001a93      0x1c0 build/cooja/mtype816.a(oxygen_measurin)
 .debug_abbrev  0x0000000000001c53      0x1c3 build/cooja/mtype816.a(coap-blocking-a)
 .debug_abbrev  0x0000000000001e16      0x2d5 build/cooja/mtype816.a(coap-engine.o)
 .debug_abbrev  0x00000000000020eb      0x169 build/cooja/mtype816.a(coap-res-well-k)
 .debug_abbrev  0x0000000000002254      0x234 build/cooja/mtype816.a(coap-observe.o)
 .debug_abbrev  0x0000000000002488      0x378 build/cooja/mtype816.a(coap-uip.o)
 .debug_abbrev  0x0000000000002800      0x155 build/cooja/mtype816.a(coap-timer.o)
 .debug_abbrev  0x0000000000002955      0x1c4 build/cooja/mtype816.a(coap-transactio)
 .debug_abbrev  0x0000000000002b19      0x23c build/cooja/mtype816.a(coap.o)
 .debug_abbrev  0x0000000000002d55      0x1ef build/cooja/mtype816.a(contiki-main.o)
 .debug_abbrev  0x0000000000002f44       0xfb build/cooja/mtype816.a(autostart.o)
 .debug_abbrev  0x000000000000303f      0x1a1 build/cooja/mtype816.a(ctimer.o)
 .debug_abbrev  0x00000000000031e0      0x159 build/cooja/mtype816.a(log.o)
 .debug_abbrev  0x0000000000003339       0x69 build/cooja/mtype816.a(energest.o)
 .debug_abbrev  0x00000000000033a2      0x1f8 build/cooja/mtype816.a(etimer.o)
 .debug_abbrev  0x000000000000359a       0x9d build/cooja/mtype816.a(node-id.o)
 .debug_abbrev  0x0000000000003637      0x126 build/cooja/mtype816.a(rtimer.o)
 .debug_abbrev  0x000000000000375d      0x244 build/cooja/mtype816.a(process.o)
 .debug_abbrev  0x00000000000039a1       0xdb build/cooja/mtype816.a(timer.o)
 .debug_abbrev  0x0000000000003a7c      0x136 build/cooja/mtype816.a(list.o)
 .debug_abbrev  0x0000000000003bb2       0xe4 build/cooja/mtype816.a(memb.o)
 .debug_abbrev  0x0000000000003c96      0x1ea build/cooja/mtype816.a(button-hal.o)
 .debug_abbrev  0x0000000000003e80      0x190 build/cooja/mtype816.a(serial-line.o)
 .debug_abbrev  0x0000000000004010       0xd4 build/cooja/mtype816.a(gpio-hal.o)
 .debug_abbrev  0x00000000000040e4      0x1a6 build/cooja/mtype816.a(queuebuf.o)
 .debug_abbrev  0x000000000000428a      0x1da build/cooja/mtype816.a(packetbuf.o)
 .debug_abbrev  0x0000000000004464      0x1d5 build/cooja/mtype816.a(netstack.o)
 .debug_abbrev  0x0000000000004639       0xf2 build/cooja/mtype816.a(linkaddr.o)
 .debug_abbrev  0x000000000000472b      0x1ff build/cooja/mtype816.a(csma.o)
 .debug_abbrev  0x000000000000492a      0x269 build/cooja/mtype816.a(csma-output.o)
 .debug_abbrev  0x0000000000004b93      0x272 build/cooja/mtype816.a(uip-ds6.o)
 .debug_abbrev  0x0000000000004e05      0x195 build/cooja/mtype816.a(uip-udp-packet.)
 .debug_abbrev  0x0000000000004f9a      0x2b0 build/cooja/mtype816.a(uip-ds6-route.o)
 .debug_abbrev  0x000000000000524a      0x3a7 build/cooja/mtype816.a(tcpip.o)
 .debug_abbrev  0x00000000000055f1      0x2cc build/cooja/mtype816.a(uip6.o)
 .debug_abbrev  0x00000000000058bd      0x295 build/cooja/mtype816.a(uip-ds6-nbr.o)
 .debug_abbrev  0x0000000000005b52      0x232 build/cooja/mtype816.a(uip-nd6.o)
 .debug_abbrev  0x0000000000005d84      0x2e2 build/cooja/mtype816.a(sicslowpan.o)
 .debug_abbrev  0x0000000000006066      0x11d build/cooja/mtype816.a(uiplib.o)
 .debug_abbrev  0x0000000000006183      0x2d2 build/cooja/mtype816.a(rpl.o)
 .debug_abbrev  0x0000000000006455      0x303 build/cooja/mtype816.a(rpl-icmp6.o)
 .debug_abbrev  0x0000000000006758      0x21b build/cooja/mtype816.a(rpl-dag-root.o)
 .debug_abbrev  0x0000000000006973       0x6b build/cooja/mtype816.a(watchdog.o)
 .debug_abbrev  0x00000000000069de       0xcc build/cooja/mtype816.a(int-master.o)
 .debug_abbrev  0x0000000000006aaa      0x231 build/cooja/mtype816.a(coap-observe-cl)
 .debug_abbrev  0x0000000000006cdb      0x184 build/cooja/mtype816.a(coap-timer-defa)
 .debug_abbrev  0x0000000000006e5f       0xbf build/cooja/mtype816.a(stimer.o)
 .debug_abbrev  0x0000000000006f1e       0xdb build/cooja/mtype816.a(ringbuf.o)
 .debug_abbrev  0x0000000000006ff9       0x61 build/cooja/mtype816.a(assert.o)
 .debug_abbrev  0x000000000000705a      0x201 build/cooja/mtype816.a(nbr-table.o)
 .debug_abbrev  0x000000000000725b      0x22b build/cooja/mtype816.a(link-stats.o)
 .debug_abbrev  0x0000000000007486       0xed build/cooja/mtype816.a(mac-sequence.o)
 .debug_abbrev  0x0000000000007573       0x8d build/cooja/mtype816.a(mac.o)
 .debug_abbrev  0x0000000000007600      0x16c build/cooja/mtype816.a(framer-802154.o)
 .debug_abbrev  0x000000000000776c      0x215 build/cooja/mtype816.a(frame802154.o)
 .debug_abbrev  0x0000000000007981       0xa4 build/cooja/mtype816.a(csma-security.o)
 .debug_abbrev  0x0000000000007a25      0x173 build/cooja/mtype816.a(uipbuf.o)
 .debug_abbrev  0x0000000000007b98      0x29a build/cooja/mtype816.a(uip-icmp6.o)
 .debug_abbrev  0x0000000000007e32      0x24e build/cooja/mtype816.a(uip-sr.o)
 .debug_abbrev  0x0000000000008080      0x1d4 build/cooja/mtype816.a(uip-packetqueue)
 .debug_abbrev  0x0000000000008254      0x25f build/cooja/mtype816.a(rpl-nbr-policy.)
 .debug_abbrev  0x00000000000084b3      0x31d build/cooja/mtype816.a(rpl-neighbor.o)
 .debug_abbrev  0x00000000000087d0      0x34c build/cooja/mtype816.a(rpl-dag.o)
 .debug_abbrev  0x0000000000008b1c      0x297 build/cooja/mtype816.a(rpl-timers.o)
 .debug_abbrev  0x0000000000008db3      0x2f9 build/cooja/mtype816.a(rpl-ext-header.)
 .debug_abbrev  0x00000000000090ac      0x1e5 build/cooja/mtype816.a(rpl-mrhof.o)

.debug_line     0x0000000000000000     0x9e3d
 *(.debug_line .debug_line.* .debug_line_end)
 .debug_line    0x0000000000000000      0x23e oxygen_sensor.o
 .debug_line    0x000000000000023e      0x2ed build/cooja/mtype816.o
 .debug_line    0x000000000000052b       0xe3 build/cooja/mtype816.a(simEnvChange.o)
 .debug_line    0x000000000000060e       0xc2 build/cooja/mtype816.a(cooja_mt.o)
 .debug_line    0x00000000000006d0       0xbf build/cooja/mtype816.a(cooja_mtarch.o)
 .debug_line    0x000000000000078f       0xd1 build/cooja/mtype816.a(rtimer-arch.o)
 .debug_line    0x0000000000000860       0xd2 build/cooja/mtype816.a(beep.o)
 .debug_line    0x0000000000000932       0xd8 build/cooja/mtype816.a(leds-arch.o)
 .debug_line    0x0000000000000a0a       0x8f build/cooja/mtype816.a(moteid.o)
 .debug_line    0x0000000000000a99       0xc5 build/cooja/mtype816.a(pir-sensor.o)
 .debug_line    0x0000000000000b5e       0xd0 build/cooja/mtype816.a(rs232.o)
 .debug_line    0x0000000000000c2e       0xc5 build/cooja/mtype816.a(vib-sensor.o)
 .debug_line    0x0000000000000cf3       0xc3 build/cooja/mtype816.a(clock.o)
 .debug_line    0x0000000000000db6      0x11f build/cooja/mtype816.a(cooja-log.o)
 .debug_line    0x0000000000000ed5      0x112 build/cooja/mtype816.a(cfs-cooja.o)
 .debug_line    0x0000000000000fe7      0x286 build/cooja/mtype816.a(cooja-radio.o)
 .debug_line    0x000000000000126d       0xc4 build/cooja/mtype816.a(eeprom.o)
 .debug_line    0x0000000000001331       0x4a build/cooja/mtype816.a(random.o)
 .debug_line    0x000000000000137b      0x11a build/cooja/mtype816.a(sensors.o)
 .debug_line    0x0000000000001495      0x122 build/cooja/mtype816.a(leds.o)
 .debug_line    0x00000000000015b7      0x157 build/cooja/mtype816.a(gpio-hal-arch.o)
 .debug_line    0x000000000000170e      0x17f build/cooja/mtype816.a(buttons.o)
 .debug_line    0x000000000000188d      0x149 build/cooja/mtype816.a(oxygen_measurin)
 .debug_line    0x00000000000019d6      0x1f0 build/cooja/mtype816.a(coap-blocking-a)
 .debug_line    0x0000000000001bc6      0x34b build/cooja/mtype816.a(coap-engine.o)
 .debug_line    0x0000000000001f11      0x202 build/cooja/mtype816.a(coap-res-well-k)
 .debug_line    0x0000000000002113      0x2f6 build/cooja/mtype816.a(coap-observe.o)
 .debug_line    0x0000000000002409      0x364 build/cooja/mtype816.a(coap-uip.o)
 .debug_line    0x000000000000276d      0x103 build/cooja/mtype816.a(coap-timer.o)
 .debug_line    0x0000000000002870      0x1cc build/cooja/mtype816.a(coap-transactio)
 .debug_line    0x0000000000002a3c      0x551 build/cooja/mtype816.a(coap.o)
 .debug_line    0x0000000000002f8d      0x381 build/cooja/mtype816.a(contiki-main.o)
 .debug_line    0x000000000000330e       0x97 build/cooja/mtype816.a(autostart.o)
 .debug_line    0x00000000000033a5      0x16f build/cooja/mtype816.a(ctimer.o)
 .debug_line    0x0000000000003514      0x158 build/cooja/mtype816.a(log.o)
 .debug_line    0x000000000000366c       0x67 build/cooja/mtype816.a(energest.o)
 .debug_line    0x00000000000036d3      0x198 build/cooja/mtype816.a(etimer.o)
 .debug_line    0x000000000000386b       0x7e build/cooja/mtype816.a(node-id.o)
 .debug_line    0x00000000000038e9       0x89 build/cooja/mtype816.a(rtimer.o)
 .debug_line    0x0000000000003972      0x181 build/cooja/mtype816.a(process.o)
 .debug_line    0x0000000000003af3       0x9b build/cooja/mtype816.a(timer.o)
 .debug_line    0x0000000000003b8e      0x113 build/cooja/mtype816.a(list.o)
 .debug_line    0x0000000000003ca1       0xbc build/cooja/mtype816.a(memb.o)
 .debug_line    0x0000000000003d5d      0x205 build/cooja/mtype816.a(button-hal.o)
 .debug_line    0x0000000000003f62      0x11e build/cooja/mtype816.a(serial-line.o)
 .debug_line    0x0000000000004080       0xb8 build/cooja/mtype816.a(gpio-hal.o)
 .debug_line    0x0000000000004138       0xee build/cooja/mtype816.a(queuebuf.o)
 .debug_line    0x0000000000004226      0x10c build/cooja/mtype816.a(packetbuf.o)
 .debug_line    0x0000000000004332      0x11d build/cooja/mtype816.a(netstack.o)
 .debug_line    0x000000000000444f       0x77 build/cooja/mtype816.a(linkaddr.o)
 .debug_line    0x00000000000044c6      0x18a build/cooja/mtype816.a(csma.o)
 .debug_line    0x0000000000004650      0x359 build/cooja/mtype816.a(csma-output.o)
 .debug_line    0x00000000000049a9      0x348 build/cooja/mtype816.a(uip-ds6.o)
 .debug_line    0x0000000000004cf1       0xd2 build/cooja/mtype816.a(uip-udp-packet.)
 .debug_line    0x0000000000004dc3      0x218 build/cooja/mtype816.a(uip-ds6-route.o)
 .debug_line    0x0000000000004fdb      0x322 build/cooja/mtype816.a(tcpip.o)
 .debug_line    0x00000000000052fd      0x574 build/cooja/mtype816.a(uip6.o)
 .debug_line    0x0000000000005871      0x27e build/cooja/mtype816.a(uip-ds6-nbr.o)
 .debug_line    0x0000000000005aef      0x2af build/cooja/mtype816.a(uip-nd6.o)
 .debug_line    0x0000000000005d9e      0x9c7 build/cooja/mtype816.a(sicslowpan.o)
 .debug_line    0x0000000000006765      0x1cb build/cooja/mtype816.a(uiplib.o)
 .debug_line    0x0000000000006930      0x2eb build/cooja/mtype816.a(rpl.o)
 .debug_line    0x0000000000006c1b      0x40a build/cooja/mtype816.a(rpl-icmp6.o)
 .debug_line    0x0000000000007025      0x1d4 build/cooja/mtype816.a(rpl-dag-root.o)
 .debug_line    0x00000000000071f9       0x95 build/cooja/mtype816.a(watchdog.o)
 .debug_line    0x000000000000728e       0x9b build/cooja/mtype816.a(int-master.o)
 .debug_line    0x0000000000007329      0x27a build/cooja/mtype816.a(coap-observe-cl)
 .debug_line    0x00000000000075a3      0x153 build/cooja/mtype816.a(coap-timer-defa)
 .debug_line    0x00000000000076f6       0x74 build/cooja/mtype816.a(stimer.o)
 .debug_line    0x000000000000776a       0x97 build/cooja/mtype816.a(ringbuf.o)
 .debug_line    0x0000000000007801       0x48 build/cooja/mtype816.a(assert.o)
 .debug_line    0x0000000000007849      0x243 build/cooja/mtype816.a(nbr-table.o)
 .debug_line    0x0000000000007a8c      0x200 build/cooja/mtype816.a(link-stats.o)
 .debug_line    0x0000000000007c8c      0x10e build/cooja/mtype816.a(mac-sequence.o)
 .debug_line    0x0000000000007d9a       0x53 build/cooja/mtype816.a(mac.o)
 .debug_line    0x0000000000007ded      0x17a build/cooja/mtype816.a(framer-802154.o)
 .debug_line    0x0000000000007f67      0x2bb build/cooja/mtype816.a(frame802154.o)
 .debug_line    0x0000000000008222       0xaf build/cooja/mtype816.a(csma-security.o)
 .debug_line    0x00000000000082d1      0x149 build/cooja/mtype816.a(uipbuf.o)
 .debug_line    0x000000000000841a      0x2d7 build/cooja/mtype816.a(uip-icmp6.o)
 .debug_line    0x00000000000086f1      0x2e5 build/cooja/mtype816.a(uip-sr.o)
 .debug_line    0x00000000000089d6      0x15e build/cooja/mtype816.a(uip-packetqueue)
 .debug_line    0x0000000000008b34      0x1d8 build/cooja/mtype816.a(rpl-nbr-policy.)
 .debug_line    0x0000000000008d0c      0x370 build/cooja/mtype816.a(rpl-neighbor.o)
 .debug_line    0x000000000000907c      0x40a build/cooja/mtype816.a(rpl-dag.o)
 .debug_line    0x0000000000009486      0x2f0 build/cooja/mtype816.a(rpl-timers.o)
 .debug_line    0x0000000000009776      0x46e build/cooja/mtype816.a(rpl-ext-header.)
 .debug_line    0x0000000000009be4      0x259 build/cooja/mtype816.a(rpl-mrhof.o)

.debug_frame
 *(.debug_frame)

.debug_str      0x0000000000000000     0x9bc8
 *(.debug_str)
 .debug_str     0x0000000000000000      0x903 oxygen_sensor.o
                                        0xb15 (size before relaxing)
 .debug_str     0x0000000000000903     0x175f build/cooja/mtype816.o
                                       0x1955 (size before relaxing)
 .debug_str     0x0000000000002062       0x2d build/cooja/mtype816.a(simEnvChange.o)
                                        0x1f2 (size before relaxing)
 .debug_str     0x000000000000208f       0x55 build/cooja/mtype816.a(cooja_mt.o)
                                        0x1f3 (size before relaxing)
 .debug_str     0x00000000000020e4       0x94 build/cooja/mtype816.a(cooja_mtarch.o)
                                        0x1f8 (size before relaxing)
 .debug_str     0x0000000000002178      0x10c build/cooja/mtype816.a(rtimer-arch.o)
                                        0x245 (size before relaxing)
 .debug_str     0x0000000000002284       0xc3 build/cooja/mtype816.a(beep.o)
                                        0x23c (size before relaxing)
 .debug_str     0x0000000000002347       0x9b build/cooja/mtype816.a(leds-arch.o)
                                        0x249 (size before relaxing)
 .debug_str     0x00000000000023e2       0x46 build/cooja/mtype816.a(moteid.o)
                                        0x1f2 (size before relaxing)
 .debug_str     0x0000000000002428       0x54 build/cooja/mtype816.a(pir-sensor.o)
                                        0x229 (size before relaxing)
 .debug_str     0x000000000000247c       0xc0 build/cooja/mtype816.a(rs232.o)
                                        0x27d (size before relaxing)
 .debug_str     0x000000000000253c       0x54 build/cooja/mtype816.a(vib-sensor.o)
                                        0x229 (size before relaxing)
 .debug_str     0x0000000000002590       0x70 build/cooja/mtype816.a(clock.o)
                                        0x21e (size before relaxing)
 .debug_str     0x0000000000002600       0xd6 build/cooja/mtype816.a(cooja-log.o)
                                        0x2a9 (size before relaxing)
 .debug_str     0x00000000000026d6      0x10b build/cooja/mtype816.a(cfs-cooja.o)
                                        0x2bf (size before relaxing)
 .debug_str     0x00000000000027e1      0x777 build/cooja/mtype816.a(cooja-radio.o)
                                        0xa63 (size before relaxing)
 .debug_str     0x0000000000002f58       0x98 build/cooja/mtype816.a(eeprom.o)
                                        0x23f (size before relaxing)
 .debug_str     0x0000000000002ff0       0x33 build/cooja/mtype816.a(random.o)
                                        0x157 (size before relaxing)
 .debug_str     0x0000000000003023       0x99 build/cooja/mtype816.a(sensors.o)
                                        0x287 (size before relaxing)
 .debug_str     0x00000000000030bc       0x8a build/cooja/mtype816.a(leds.o)
                                        0x212 (size before relaxing)
 .debug_str     0x0000000000003146      0x2a5 build/cooja/mtype816.a(gpio-hal-arch.o)
                                        0x404 (size before relaxing)
 .debug_str     0x00000000000033eb      0x10c build/cooja/mtype816.a(buttons.o)
                                        0x3c0 (size before relaxing)
 .debug_str     0x00000000000034f7      0x3ec build/cooja/mtype816.a(oxygen_measurin)
                                        0xbc4 (size before relaxing)
 .debug_str     0x00000000000038e3       0xb4 build/cooja/mtype816.a(coap-blocking-a)
                                        0x77c (size before relaxing)
 .debug_str     0x0000000000003997      0x31e build/cooja/mtype816.a(coap-engine.o)
                                        0xe01 (size before relaxing)
 .debug_str     0x0000000000003cb5       0x68 build/cooja/mtype816.a(coap-res-well-k)
                                        0xbde (size before relaxing)
 .debug_str     0x0000000000003d1d      0x1f3 build/cooja/mtype816.a(coap-observe.o)
                                        0xcef (size before relaxing)
 .debug_str     0x0000000000003f10      0x454 build/cooja/mtype816.a(coap-uip.o)
                                        0x9f2 (size before relaxing)
 .debug_str     0x0000000000004364       0xb7 build/cooja/mtype816.a(coap-timer.o)
                                        0x2a9 (size before relaxing)
 .debug_str     0x000000000000441b      0x11c build/cooja/mtype816.a(coap-transactio)
                                        0x82c (size before relaxing)
 .debug_str     0x0000000000004537      0x5de build/cooja/mtype816.a(coap.o)
                                        0xe5b (size before relaxing)
 .debug_str     0x0000000000004b15      0x4ca build/cooja/mtype816.a(contiki-main.o)
                                        0xd30 (size before relaxing)
 .debug_str     0x0000000000004fdf       0x38 build/cooja/mtype816.a(autostart.o)
                                        0x1b3 (size before relaxing)
 .debug_str     0x0000000000005017       0xc3 build/cooja/mtype816.a(ctimer.o)
                                        0x2b4 (size before relaxing)
 .debug_str     0x00000000000050da      0x1b1 build/cooja/mtype816.a(log.o)
                                        0x367 (size before relaxing)
 .debug_str     0x000000000000528b       0x4d build/cooja/mtype816.a(energest.o)
                                        0x17a (size before relaxing)
 .debug_str     0x00000000000052d8      0x136 build/cooja/mtype816.a(etimer.o)
                                        0x327 (size before relaxing)
 .debug_str     0x000000000000540e       0x24 build/cooja/mtype816.a(node-id.o)
                                        0x177 (size before relaxing)
 .debug_str     0x0000000000005432       0xb0 build/cooja/mtype816.a(rtimer.o)
                                        0x1fe (size before relaxing)
 .debug_str     0x00000000000054e2      0x154 build/cooja/mtype816.a(process.o)
                                        0x2e9 (size before relaxing)
 .debug_str     0x0000000000005636       0x15 build/cooja/mtype816.a(timer.o)
                                        0x1a2 (size before relaxing)
 .debug_str     0x000000000000564b       0xb4 build/cooja/mtype816.a(list.o)
                                        0x1f9 (size before relaxing)
 .debug_str     0x00000000000056ff       0x5a build/cooja/mtype816.a(memb.o)
                                        0x193 (size before relaxing)
 .debug_str     0x0000000000005759      0x1c9 build/cooja/mtype816.a(button-hal.o)
                                        0x4c8 (size before relaxing)
 .debug_str     0x0000000000005922       0x9a build/cooja/mtype816.a(serial-line.o)
                                        0x272 (size before relaxing)
 .debug_str     0x00000000000059bc       0xec build/cooja/mtype816.a(gpio-hal.o)
                                        0x2c8 (size before relaxing)
 .debug_str     0x0000000000005aa8      0x1ca build/cooja/mtype816.a(queuebuf.o)
                                        0x4e8 (size before relaxing)
 .debug_str     0x0000000000005c72      0x1b4 build/cooja/mtype816.a(packetbuf.o)
                                        0x525 (size before relaxing)
 .debug_str     0x0000000000005e26      0x167 build/cooja/mtype816.a(netstack.o)
                                        0x453 (size before relaxing)
 .debug_str     0x0000000000005f8d       0x50 build/cooja/mtype816.a(linkaddr.o)
                                        0x1b4 (size before relaxing)
 .debug_str     0x0000000000005fdd       0x8f build/cooja/mtype816.a(csma.o)
                                        0x7ab (size before relaxing)
 .debug_str     0x000000000000606c      0x282 build/cooja/mtype816.a(csma-output.o)
                                        0x84b (size before relaxing)
 .debug_str     0x00000000000062ee      0x3ef build/cooja/mtype816.a(uip-ds6.o)
                                        0x6e5 (size before relaxing)
 .debug_str     0x00000000000066dd       0x74 build/cooja/mtype816.a(uip-udp-packet.)
                                        0x285 (size before relaxing)
 .debug_str     0x0000000000006751      0x222 build/cooja/mtype816.a(uip-ds6-route.o)
                                        0x5d8 (size before relaxing)
 .debug_str     0x0000000000006973      0x2af build/cooja/mtype816.a(tcpip.o)
                                        0x9e7 (size before relaxing)
 .debug_str     0x0000000000006c22      0x1f7 build/cooja/mtype816.a(uip6.o)
                                        0xa25 (size before relaxing)
 .debug_str     0x0000000000006e19      0x1fc build/cooja/mtype816.a(uip-ds6-nbr.o)
                                        0x884 (size before relaxing)
 .debug_str     0x0000000000007015      0x11d build/cooja/mtype816.a(uip-nd6.o)
                                        0x5f1 (size before relaxing)
 .debug_str     0x0000000000007132      0x589 build/cooja/mtype816.a(sicslowpan.o)
                                        0xf22 (size before relaxing)
 .debug_str     0x00000000000076bb       0x90 build/cooja/mtype816.a(uiplib.o)
                                        0x1fe (size before relaxing)
 .debug_str     0x000000000000774b      0x2b2 build/cooja/mtype816.a(rpl.o)
                                        0xb99 (size before relaxing)
 .debug_str     0x00000000000079fd      0x1dd build/cooja/mtype816.a(rpl-icmp6.o)
                                        0xc59 (size before relaxing)
 .debug_str     0x0000000000007bda       0xa1 build/cooja/mtype816.a(rpl-dag-root.o)
                                        0x84a (size before relaxing)
 .debug_str     0x0000000000007c7b       0x76 build/cooja/mtype816.a(watchdog.o)
                                        0x1ad (size before relaxing)
 .debug_str     0x0000000000007cf1       0x88 build/cooja/mtype816.a(int-master.o)
                                        0x1d6 (size before relaxing)
 .debug_str     0x0000000000007d79      0x2a4 build/cooja/mtype816.a(coap-observe-cl)
                                        0xbe1 (size before relaxing)
 .debug_str     0x000000000000801d       0x6d build/cooja/mtype816.a(coap-timer-defa)
                                        0x296 (size before relaxing)
 .debug_str     0x000000000000808a       0x6c build/cooja/mtype816.a(stimer.o)
                                        0x1a6 (size before relaxing)
 .debug_str     0x00000000000080f6       0x5a build/cooja/mtype816.a(ringbuf.o)
                                        0x1b5 (size before relaxing)
 .debug_str     0x0000000000008150       0x26 build/cooja/mtype816.a(assert.o)
                                        0x14f (size before relaxing)
 .debug_str     0x0000000000008176      0x26c build/cooja/mtype816.a(nbr-table.o)
                                        0x59b (size before relaxing)
 .debug_str     0x00000000000083e2      0x129 build/cooja/mtype816.a(link-stats.o)
                                        0x6af (size before relaxing)
 .debug_str     0x000000000000850b       0x70 build/cooja/mtype816.a(mac-sequence.o)
                                        0x375 (size before relaxing)
 .debug_str     0x000000000000857b       0x35 build/cooja/mtype816.a(mac.o)
                                        0x180 (size before relaxing)
 .debug_str     0x00000000000085b0      0x22d build/cooja/mtype816.a(framer-802154.o)
                                        0x5bd (size before relaxing)
 .debug_str     0x00000000000087dd      0x1f2 build/cooja/mtype816.a(frame802154.o)
                                        0x56c (size before relaxing)
 .debug_str     0x00000000000089cf       0x5b build/cooja/mtype816.a(csma-security.o)
                                        0x34d (size before relaxing)
 .debug_str     0x0000000000008a2a      0x1aa build/cooja/mtype816.a(uipbuf.o)
                                        0x44b (size before relaxing)
 .debug_str     0x0000000000008bd4      0x1ed build/cooja/mtype816.a(uip-icmp6.o)
                                        0x918 (size before relaxing)
 .debug_str     0x0000000000008dc1      0x17b build/cooja/mtype816.a(uip-sr.o)
                                        0x70d (size before relaxing)
 .debug_str     0x0000000000008f3c       0xf3 build/cooja/mtype816.a(uip-packetqueue)
                                        0x337 (size before relaxing)
 .debug_str     0x000000000000902f       0xa4 build/cooja/mtype816.a(rpl-nbr-policy.)
                                        0x9ab (size before relaxing)
 .debug_str     0x00000000000090d3      0x28e build/cooja/mtype816.a(rpl-neighbor.o)
                                        0xa21 (size before relaxing)
 .debug_str     0x0000000000009361      0x2d0 build/cooja/mtype816.a(rpl-dag.o)
                                        0xb49 (size before relaxing)
 .debug_str     0x0000000000009631      0x321 build/cooja/mtype816.a(rpl-timers.o)
                                        0xa15 (size before relaxing)
 .debug_str     0x0000000000009952      0x1b2 build/cooja/mtype816.a(rpl-ext-header.)
                                        0xf5a (size before relaxing)
 .debug_str     0x0000000000009b04       0xc4 build/cooja/mtype816.a(rpl-mrhof.o)
                                        0x712 (size before relaxing)

.debug_loc
 *(.debug_loc)

.debug_macinfo
 *(.debug_macinfo)

.debug_weaknames
 *(.debug_weaknames)

.debug_funcnames
 *(.debug_funcnames)

.debug_typenames
 *(.debug_typenames)

.debug_varnames
 *(.debug_varnames)

.debug_pubtypes
 *(.debug_pubtypes)

.debug_ranges   0x0000000000000000      0x100
 *(.debug_ranges)
 .debug_ranges  0x0000000000000000       0x18 build/cooja/mtype816.a(etimer.o)
 .debug_ranges  0x0000000000000018       0x30 build/cooja/mtype816.a(csma-output.o)
 .debug_ranges  0x0000000000000048       0x18 build/cooja/mtype816.a(tcpip.o)
 .debug_ranges  0x0000000000000060       0x28 build/cooja/mtype816.a(uip-nd6.o)
 .debug_ranges  0x0000000000000088       0x48 build/cooja/mtype816.a(sicslowpan.o)
 .debug_ranges  0x00000000000000d0       0x30 build/cooja/mtype816.a(nbr-table.o)

.debug_macro
 *(.debug_macro)

.gnu.attributes
 *(.gnu.attributes)

/DISCARD/
 *(.note.GNU-stack)
 *(.gnu_debuglink)
 *(.gnu.lto_*)
OUTPUT(build/cooja/mtype816.cooja elf32-i386)
